
code1.elf:     file format elf32-bigmips


Disassembly of section .text.start:

10000000 <_entry>:
10000000:	3c051000 	lui	a1,0x1000
10000004:	24a55260 	addiu	a1,a1,21088
10000008:	3c041008 	lui	a0,0x1008
1000000c:	248406d8 	addiu	a0,a0,1752
10000010:	3c1c1000 	lui	gp,0x1000
10000014:	279c5254 	addiu	gp,gp,21076
10000018:	3c1d2000 	lui	sp,0x2000
1000001c:	27bdfffc 	addiu	sp,sp,-4
10000020:	aca00000 	sw	zero,0(a1)
10000024:	00a4182a 	slt	v1,a1,a0
10000028:	24a50004 	addiu	a1,a1,4
1000002c:	1460fffc 	bnez	v1,10000020 <_entry+0x20>
10000030:	00000000 	nop
10000034:	0c000770 	jal	10001dc0 <main>
10000038:	00000000 	nop
1000003c:	3c1ae000 	lui	k0,0xe000
10000040:	af400000 	sw	zero,0(k0)
10000044:	1000ffff 	b	10000044 <_entry+0x44>
10000048:	00000000 	nop
	...

10000100 <_isr>:
10000100:	23bdff98 	addi	sp,sp,-104
10000104:	afa10010 	sw	at,16(sp)
10000108:	afa20014 	sw	v0,20(sp)
1000010c:	afa30018 	sw	v1,24(sp)
10000110:	afa4001c 	sw	a0,28(sp)
10000114:	afa50020 	sw	a1,32(sp)
10000118:	afa60024 	sw	a2,36(sp)
1000011c:	afa70028 	sw	a3,40(sp)
10000120:	afa8002c 	sw	t0,44(sp)
10000124:	afa90030 	sw	t1,48(sp)
10000128:	afaa0034 	sw	t2,52(sp)
1000012c:	afab0038 	sw	t3,56(sp)
10000130:	afac003c 	sw	t4,60(sp)
10000134:	afad0040 	sw	t5,64(sp)
10000138:	afae0044 	sw	t6,68(sp)
1000013c:	afaf0048 	sw	t7,72(sp)
10000140:	afb8004c 	sw	t8,76(sp)
10000144:	afb90050 	sw	t9,80(sp)
10000148:	afbf0054 	sw	ra,84(sp)
1000014c:	401a7000 	mfc0	k0,c0_epc
10000150:	235afffc 	addi	k0,k0,-4
10000154:	afba0058 	sw	k0,88(sp)
10000158:	0000d810 	mfhi	k1
1000015c:	afbb005c 	sw	k1,92(sp)
10000160:	0000d812 	mflo	k1
10000164:	afbb0060 	sw	k1,96(sp)
10000168:	3c052000 	lui	a1,0x2000
1000016c:	8ca40020 	lw	a0,32(a1)
10000170:	8ca60010 	lw	a2,16(a1)
10000174:	00862024 	and	a0,a0,a2
10000178:	0c0004ff 	jal	100013fc <_irq_handler>
1000017c:	27a50000 	addiu	a1,sp,0
10000180:	8fa10010 	lw	at,16(sp)
10000184:	8fa20014 	lw	v0,20(sp)
10000188:	8fa30018 	lw	v1,24(sp)
1000018c:	8fa4001c 	lw	a0,28(sp)
10000190:	8fa50020 	lw	a1,32(sp)
10000194:	8fa60024 	lw	a2,36(sp)
10000198:	8fa70028 	lw	a3,40(sp)
1000019c:	8fa8002c 	lw	t0,44(sp)
100001a0:	8fa90030 	lw	t1,48(sp)
100001a4:	8faa0034 	lw	t2,52(sp)
100001a8:	8fab0038 	lw	t3,56(sp)
100001ac:	8fac003c 	lw	t4,60(sp)
100001b0:	8fad0040 	lw	t5,64(sp)
100001b4:	8fae0044 	lw	t6,68(sp)
100001b8:	8faf0048 	lw	t7,72(sp)
100001bc:	8fb8004c 	lw	t8,76(sp)
100001c0:	8fb90050 	lw	t9,80(sp)
100001c4:	8fbf0054 	lw	ra,84(sp)
100001c8:	8fba0058 	lw	k0,88(sp)
100001cc:	8fbb005c 	lw	k1,92(sp)
100001d0:	03600011 	mthi	k1
100001d4:	8fbb0060 	lw	k1,96(sp)
100001d8:	03600013 	mtlo	k1
100001dc:	23bd0068 	addi	sp,sp,104

100001e0 <isr_return>:
100001e0:	341b0001 	li	k1,0x1
100001e4:	03400008 	jr	k0
100001e8:	409b6000 	mtc0	k1,c0_sr

100001ec <_interrupt_set>:
100001ec:	40026000 	mfc0	v0,c0_sr
100001f0:	40846000 	mtc0	a0,c0_sr
100001f4:	03e00008 	jr	ra
100001f8:	40846000 	mtc0	a0,c0_sr

100001fc <_interrupt_init>:
100001fc:	3c051000 	lui	a1,0x1000
10000200:	24a5022c 	addiu	a1,a1,556
10000204:	8ca60000 	lw	a2,0(a1)
10000208:	ac06003c 	sw	a2,60(zero)
1000020c:	8ca60004 	lw	a2,4(a1)
10000210:	ac060040 	sw	a2,64(zero)
10000214:	8ca60008 	lw	a2,8(a1)
10000218:	ac060044 	sw	a2,68(zero)
1000021c:	8ca6000c 	lw	a2,12(a1)
10000220:	ac060048 	sw	a2,72(zero)
10000224:	03e00008 	jr	ra
10000228:	00000000 	nop

1000022c <_irq_patch>:
1000022c:	3c1a1000 	lui	k0,0x1000
10000230:	275a0100 	addiu	k0,k0,256
10000234:	03400008 	jr	k0
10000238:	00000000 	nop

1000023c <_context_save>:
1000023c:	ac900000 	sw	s0,0(a0)
10000240:	ac910004 	sw	s1,4(a0)
10000244:	ac920008 	sw	s2,8(a0)
10000248:	ac93000c 	sw	s3,12(a0)
1000024c:	ac940010 	sw	s4,16(a0)
10000250:	ac950014 	sw	s5,20(a0)
10000254:	ac960018 	sw	s6,24(a0)
10000258:	ac97001c 	sw	s7,28(a0)
1000025c:	ac9e0020 	sw	s8,32(a0)
10000260:	ac9c0024 	sw	gp,36(a0)
10000264:	ac9d0028 	sw	sp,40(a0)
10000268:	ac9f002c 	sw	ra,44(a0)
1000026c:	03e00008 	jr	ra
10000270:	34020000 	li	v0,0x0

10000274 <_context_restore>:
10000274:	8c900000 	lw	s0,0(a0)
10000278:	8c910004 	lw	s1,4(a0)
1000027c:	8c920008 	lw	s2,8(a0)
10000280:	8c93000c 	lw	s3,12(a0)
10000284:	8c940010 	lw	s4,16(a0)
10000288:	8c950014 	lw	s5,20(a0)
1000028c:	8c960018 	lw	s6,24(a0)
10000290:	8c97001c 	lw	s7,28(a0)
10000294:	8c9e0020 	lw	s8,32(a0)
10000298:	8c9c0024 	lw	gp,36(a0)
1000029c:	8c9d0028 	lw	sp,40(a0)
100002a0:	8c9f002c 	lw	ra,44(a0)
100002a4:	341b0001 	li	k1,0x1
100002a8:	409b6000 	mtc0	k1,c0_sr
100002ac:	03e00008 	jr	ra
100002b0:	34a20000 	ori	v0,a1,0x0

Disassembly of section .text:

100002b4 <slave>:
100002b4:	27bdffa8 	addiu	sp,sp,-88
100002b8:	afbf0054 	sw	ra,84(sp)
100002bc:	afbe0050 	sw	s8,80(sp)
100002c0:	afb7004c 	sw	s7,76(sp)
100002c4:	afb60048 	sw	s6,72(sp)
100002c8:	afb50044 	sw	s5,68(sp)
100002cc:	afb40040 	sw	s4,64(sp)
100002d0:	afb3003c 	sw	s3,60(sp)
100002d4:	afb20038 	sw	s2,56(sp)
100002d8:	afb10034 	sw	s1,52(sp)
100002dc:	0c000fd9 	jal	10003f64 <hf_selfid>
100002e0:	afb00030 	sw	s0,48(sp)
100002e4:	00402021 	move	a0,v0
100002e8:	240503e8 	li	a1,1000
100002ec:	0c000a8e 	jal	10002a38 <hf_comm_create>
100002f0:	00003021 	move	a2,zero
100002f4:	10400003 	beqz	v0,10000304 <slave+0x50>
100002f8:	00000000 	nop
100002fc:	0c000d36 	jal	100034d8 <panic>
10000300:	240400ff 	li	a0,255
10000304:	3c111000 	lui	s1,0x1000
10000308:	3c131000 	lui	s3,0x1000
1000030c:	8e24524c 	lw	a0,21068(s1)
10000310:	8e625248 	lw	v0,21064(s3)
10000314:	3c1e1000 	lui	s8,0x1000
10000318:	00820018 	mult	a0,v0
1000031c:	241701f4 	li	s7,500
10000320:	27de42d0 	addiu	s8,s8,17104
10000324:	00002012 	mflo	a0
10000328:	0c00070f 	jal	10001c3c <malloc>
1000032c:	308400ff 	andi	a0,a0,0xff
10000330:	00408021 	move	s0,v0
10000334:	8e645248 	lw	a0,21064(s3)
10000338:	8e22524c 	lw	v0,21068(s1)
1000033c:	00000000 	nop
10000340:	00820018 	mult	a0,v0
10000344:	00002012 	mflo	a0
10000348:	0c00070f 	jal	10001c3c <malloc>
1000034c:	26120002 	addiu	s2,s0,2
10000350:	0040b021 	move	s6,v0
10000354:	8e645248 	lw	a0,21064(s3)
10000358:	8e22524c 	lw	v0,21068(s1)
1000035c:	00000000 	nop
10000360:	00820018 	mult	a0,v0
10000364:	00002012 	mflo	a0
10000368:	0c00070f 	jal	10001c3c <malloc>
1000036c:	00000000 	nop
10000370:	0040a821 	move	s5,v0
10000374:	8e645248 	lw	a0,21064(s3)
10000378:	8e22524c 	lw	v0,21068(s1)
1000037c:	3c131000 	lui	s3,0x1000
10000380:	00820018 	mult	a0,v0
10000384:	00002012 	mflo	a0
10000388:	0c00070f 	jal	10001c3c <malloc>
1000038c:	267342f8 	addiu	s3,s3,17144
10000390:	00408821 	move	s1,v0
10000394:	08000126 	j	10000498 <slave+0x1e4>
10000398:	24540002 	addiu	s4,v0,2
1000039c:	92030001 	lbu	v1,1(s0)
100003a0:	92020000 	lbu	v0,0(s0)
100003a4:	24630004 	addiu	v1,v1,4
100003a8:	00021080 	sll	v0,v0,0x2
100003ac:	00621821 	addu	v1,v1,v0
100003b0:	306300ff 	andi	v1,v1,0xff
100003b4:	00603021 	move	a2,v1
100003b8:	02c02021 	move	a0,s6
100003bc:	240500ff 	li	a1,255
100003c0:	0c0006f5 	jal	10001bd4 <memset>
100003c4:	afa30028 	sw	v1,40(sp)
100003c8:	8fa30028 	lw	v1,40(sp)
100003cc:	02a02021 	move	a0,s5
100003d0:	00603021 	move	a2,v1
100003d4:	0c0006f5 	jal	10001bd4 <memset>
100003d8:	240500ff 	li	a1,255
100003dc:	8fa30028 	lw	v1,40(sp)
100003e0:	02202021 	move	a0,s1
100003e4:	00603021 	move	a2,v1
100003e8:	0c0006f5 	jal	10001bd4 <memset>
100003ec:	240500ff 	li	a1,255
100003f0:	92050001 	lbu	a1,1(s0)
100003f4:	92060000 	lbu	a2,0(s0)
100003f8:	02602021 	move	a0,s3
100003fc:	24a50004 	addiu	a1,a1,4
10000400:	0c0006ff 	jal	10001bfc <printf>
10000404:	24c60004 	addiu	a2,a2,4
10000408:	92050001 	lbu	a1,1(s0)
1000040c:	92060000 	lbu	a2,0(s0)
10000410:	02402021 	move	a0,s2
10000414:	24c60004 	addiu	a2,a2,4
10000418:	0c0008b0 	jal	100022c0 <matrix_print>
1000041c:	24a50004 	addiu	a1,a1,4
10000420:	02202021 	move	a0,s1
10000424:	02002821 	move	a1,s0
10000428:	0c0006ea 	jal	10001ba8 <memcpy>
1000042c:	24060002 	li	a2,2
10000430:	92030001 	lbu	v1,1(s0)
10000434:	92020000 	lbu	v0,0(s0)
10000438:	24080002 	li	t0,2
1000043c:	24660004 	addiu	a2,v1,4
10000440:	24470004 	addiu	a3,v0,4
10000444:	02402021 	move	a0,s2
10000448:	02802821 	move	a1,s4
1000044c:	afa80010 	sw	t0,16(sp)
10000450:	afa80014 	sw	t0,20(sp)
10000454:	afa30018 	sw	v1,24(sp)
10000458:	0c0008e7 	jal	1000239c <get_sub_matrix>
1000045c:	afa2001c 	sw	v0,28(sp)
10000460:	92070001 	lbu	a3,1(s0)
10000464:	92020000 	lbu	v0,0(s0)
10000468:	240503e8 	li	a1,1000
1000046c:	00e20018 	mult	a3,v0
10000470:	02203021 	move	a2,s1
10000474:	00002021 	move	a0,zero
10000478:	afa00010 	sw	zero,16(sp)
1000047c:	afb70014 	sw	s7,20(sp)
10000480:	00003812 	mflo	a3
10000484:	0c000ce2 	jal	10003388 <hf_sendack>
10000488:	24e70002 	addiu	a3,a3,2
1000048c:	3045ffff 	andi	a1,v0,0xffff
10000490:	14a0000e 	bnez	a1,100004cc <slave+0x218>
10000494:	3c041000 	lui	a0,0x1000
10000498:	27a50022 	addiu	a1,sp,34
1000049c:	27a70020 	addiu	a3,sp,32
100004a0:	27a40024 	addiu	a0,sp,36
100004a4:	02003021 	move	a2,s0
100004a8:	0c000cc7 	jal	1000331c <hf_recvack>
100004ac:	afa00010 	sw	zero,16(sp)
100004b0:	3045ffff 	andi	a1,v0,0xffff
100004b4:	10a0ffb9 	beqz	a1,1000039c <slave+0xe8>
100004b8:	00000000 	nop
100004bc:	0c0006ff 	jal	10001bfc <printf>
100004c0:	03c02021 	move	a0,s8
100004c4:	080000e7 	j	1000039c <slave+0xe8>
100004c8:	00000000 	nop
100004cc:	0c0006ff 	jal	10001bfc <printf>
100004d0:	24844328 	addiu	a0,a0,17192
100004d4:	08000127 	j	1000049c <slave+0x1e8>
100004d8:	27a50022 	addiu	a1,sp,34

100004dc <print_image>:
100004dc:	27bdffc8 	addiu	sp,sp,-56
100004e0:	afb10014 	sw	s1,20(sp)
100004e4:	afb00010 	sw	s0,16(sp)
100004e8:	3c111000 	lui	s1,0x1000
100004ec:	3c101000 	lui	s0,0x1000
100004f0:	afb20018 	sw	s2,24(sp)
100004f4:	8e05524c 	lw	a1,21068(s0)
100004f8:	8e265248 	lw	a2,21064(s1)
100004fc:	00809021 	move	s2,a0
10000500:	3c041000 	lui	a0,0x1000
10000504:	24844354 	addiu	a0,a0,17236
10000508:	afbf0034 	sw	ra,52(sp)
1000050c:	afbe0030 	sw	s8,48(sp)
10000510:	afb7002c 	sw	s7,44(sp)
10000514:	afb60028 	sw	s6,40(sp)
10000518:	afb50024 	sw	s5,36(sp)
1000051c:	afb40020 	sw	s4,32(sp)
10000520:	0c0006ff 	jal	10001bfc <printf>
10000524:	afb3001c 	sw	s3,28(sp)
10000528:	3c041000 	lui	a0,0x1000
1000052c:	0c0006ff 	jal	10001bfc <printf>
10000530:	24844378 	addiu	a0,a0,17272
10000534:	8e225248 	lw	v0,21064(s1)
10000538:	00000000 	nop
1000053c:	1840002c 	blez	v0,100005f0 <print_image+0x114>
10000540:	3c171000 	lui	s7,0x1000
10000544:	3c161000 	lui	s6,0x1000
10000548:	0000a821 	move	s5,zero
1000054c:	0000a021 	move	s4,zero
10000550:	26f74390 	addiu	s7,s7,17296
10000554:	26d64398 	addiu	s6,s6,17304
10000558:	8e02524c 	lw	v0,21068(s0)
1000055c:	00000000 	nop
10000560:	1840001e 	blez	v0,100005dc <print_image+0x100>
10000564:	3c031000 	lui	v1,0x1000
10000568:	00009821 	move	s3,zero
1000056c:	247e4494 	addiu	s8,v1,17556
10000570:	02a20018 	mult	s5,v0
10000574:	02531821 	addu	v1,s2,s3
10000578:	02e02021 	move	a0,s7
1000057c:	00001012 	mflo	v0
10000580:	00621021 	addu	v0,v1,v0
10000584:	90450000 	lbu	a1,0(v0)
10000588:	0c0006ff 	jal	10001bfc <printf>
1000058c:	26940001 	addiu	s4,s4,1
10000590:	8e225248 	lw	v0,21064(s1)
10000594:	00000000 	nop
10000598:	2442ffff 	addiu	v0,v0,-1
1000059c:	02a2102a 	slt	v0,s5,v0
100005a0:	14400021 	bnez	v0,10000628 <print_image+0x14c>
100005a4:	02c02021 	move	a0,s6
100005a8:	8e02524c 	lw	v0,21068(s0)
100005ac:	00000000 	nop
100005b0:	2442ffff 	addiu	v0,v0,-1
100005b4:	0262102a 	slt	v0,s3,v0
100005b8:	1440001b 	bnez	v0,10000628 <print_image+0x14c>
100005bc:	3282000f 	andi	v0,s4,0xf
100005c0:	1040001e 	beqz	v0,1000063c <print_image+0x160>
100005c4:	26730001 	addiu	s3,s3,1
100005c8:	8e02524c 	lw	v0,21068(s0)
100005cc:	00000000 	nop
100005d0:	0262182a 	slt	v1,s3,v0
100005d4:	1460ffe7 	bnez	v1,10000574 <print_image+0x98>
100005d8:	02a20018 	mult	s5,v0
100005dc:	8e225248 	lw	v0,21064(s1)
100005e0:	26b50001 	addiu	s5,s5,1
100005e4:	02a2102a 	slt	v0,s5,v0
100005e8:	1440ffdb 	bnez	v0,10000558 <print_image+0x7c>
100005ec:	00000000 	nop
100005f0:	3c041000 	lui	a0,0x1000
100005f4:	8fbf0034 	lw	ra,52(sp)
100005f8:	8fbe0030 	lw	s8,48(sp)
100005fc:	8fb7002c 	lw	s7,44(sp)
10000600:	8fb60028 	lw	s6,40(sp)
10000604:	8fb50024 	lw	s5,36(sp)
10000608:	8fb40020 	lw	s4,32(sp)
1000060c:	8fb3001c 	lw	s3,28(sp)
10000610:	8fb20018 	lw	s2,24(sp)
10000614:	8fb10014 	lw	s1,20(sp)
10000618:	8fb00010 	lw	s0,16(sp)
1000061c:	2484439c 	addiu	a0,a0,17308
10000620:	080006ff 	j	10001bfc <printf>
10000624:	27bd0038 	addiu	sp,sp,56
10000628:	0c0006ff 	jal	10001bfc <printf>
1000062c:	26730001 	addiu	s3,s3,1
10000630:	3282000f 	andi	v0,s4,0xf
10000634:	1440ffe4 	bnez	v0,100005c8 <print_image+0xec>
10000638:	00000000 	nop
1000063c:	0c0006ff 	jal	10001bfc <printf>
10000640:	03c02021 	move	a0,s8
10000644:	08000172 	j	100005c8 <print_image+0xec>
10000648:	00000000 	nop

1000064c <next_data>:
1000064c:	8cc20000 	lw	v0,0(a2)
10000650:	00052880 	sll	a1,a1,0x2
10000654:	27bdffd0 	addiu	sp,sp,-48
10000658:	00852021 	addu	a0,a0,a1
1000065c:	afb30028 	sw	s3,40(sp)
10000660:	afb20024 	sw	s2,36(sp)
10000664:	afb10020 	sw	s1,32(sp)
10000668:	afb0001c 	sw	s0,28(sp)
1000066c:	afbf002c 	sw	ra,44(sp)
10000670:	ac820000 	sw	v0,0(a0)
10000674:	8ce20000 	lw	v0,0(a3)
10000678:	8fb10040 	lw	s1,64(sp)
1000067c:	ac820004 	sw	v0,4(a0)
10000680:	8e220000 	lw	v0,0(s1)
10000684:	8fb30044 	lw	s3,68(sp)
10000688:	ac820008 	sw	v0,8(a0)
1000068c:	8e620000 	lw	v0,0(s3)
10000690:	00c08021 	move	s0,a2
10000694:	ac82000c 	sw	v0,12(a0)
10000698:	8cc50000 	lw	a1,0(a2)
1000069c:	8e620000 	lw	v0,0(s3)
100006a0:	8ce60000 	lw	a2,0(a3)
100006a4:	00e09021 	move	s2,a3
100006a8:	3c041000 	lui	a0,0x1000
100006ac:	8e270000 	lw	a3,0(s1)
100006b0:	248443a0 	addiu	a0,a0,17312
100006b4:	0c0006ff 	jal	10001bfc <printf>
100006b8:	afa20010 	sw	v0,16(sp)
100006bc:	8e030000 	lw	v1,0(s0)
100006c0:	8e220000 	lw	v0,0(s1)
100006c4:	00000000 	nop
100006c8:	00621021 	addu	v0,v1,v0
100006cc:	ae020000 	sw	v0,0(s0)
100006d0:	3c031000 	lui	v1,0x1000
100006d4:	8c63524c 	lw	v1,21068(v1)
100006d8:	00000000 	nop
100006dc:	0043202a 	slt	a0,v0,v1
100006e0:	1480001c 	bnez	a0,10000754 <next_data+0x108>
100006e4:	00621023 	subu	v0,v1,v0
100006e8:	ae000000 	sw	zero,0(s0)
100006ec:	8e430000 	lw	v1,0(s2)
100006f0:	8e620000 	lw	v0,0(s3)
100006f4:	00000000 	nop
100006f8:	00621021 	addu	v0,v1,v0
100006fc:	ae420000 	sw	v0,0(s2)
10000700:	24020010 	li	v0,16
10000704:	ae220000 	sw	v0,0(s1)
10000708:	3c031000 	lui	v1,0x1000
1000070c:	8e420000 	lw	v0,0(s2)
10000710:	8c635248 	lw	v1,21064(v1)
10000714:	00000000 	nop
10000718:	0043202a 	slt	a0,v0,v1
1000071c:	10800006 	beqz	a0,10000738 <next_data+0xec>
10000720:	00000000 	nop
10000724:	00621023 	subu	v0,v1,v0
10000728:	28430010 	slti	v1,v0,16
1000072c:	10600002 	beqz	v1,10000738 <next_data+0xec>
10000730:	00000000 	nop
10000734:	ae620000 	sw	v0,0(s3)
10000738:	8fbf002c 	lw	ra,44(sp)
1000073c:	8fb30028 	lw	s3,40(sp)
10000740:	8fb20024 	lw	s2,36(sp)
10000744:	8fb10020 	lw	s1,32(sp)
10000748:	8fb0001c 	lw	s0,28(sp)
1000074c:	03e00008 	jr	ra
10000750:	27bd0030 	addiu	sp,sp,48
10000754:	28430010 	slti	v1,v0,16
10000758:	1060fff7 	beqz	v1,10000738 <next_data+0xec>
1000075c:	00000000 	nop
10000760:	8fbf002c 	lw	ra,44(sp)
10000764:	ae220000 	sw	v0,0(s1)
10000768:	8fb30028 	lw	s3,40(sp)
1000076c:	8fb20024 	lw	s2,36(sp)
10000770:	8fb10020 	lw	s1,32(sp)
10000774:	8fb0001c 	lw	s0,28(sp)
10000778:	03e00008 	jr	ra
1000077c:	27bd0030 	addiu	sp,sp,48

10000780 <master>:
10000780:	27bdff70 	addiu	sp,sp,-144
10000784:	afbf008c 	sw	ra,140(sp)
10000788:	afbe0088 	sw	s8,136(sp)
1000078c:	afb70084 	sw	s7,132(sp)
10000790:	afb60080 	sw	s6,128(sp)
10000794:	afb5007c 	sw	s5,124(sp)
10000798:	afb40078 	sw	s4,120(sp)
1000079c:	afb30074 	sw	s3,116(sp)
100007a0:	afb20070 	sw	s2,112(sp)
100007a4:	afb1006c 	sw	s1,108(sp)
100007a8:	0c000fd9 	jal	10003f64 <hf_selfid>
100007ac:	afb00068 	sw	s0,104(sp)
100007b0:	00402021 	move	a0,v0
100007b4:	240503e8 	li	a1,1000
100007b8:	0c000a8e 	jal	10002a38 <hf_comm_create>
100007bc:	00003021 	move	a2,zero
100007c0:	14400193 	bnez	v0,10000e10 <master+0x690>
100007c4:	00000000 	nop
100007c8:	3c121000 	lui	s2,0x1000
100007cc:	3c111000 	lui	s1,0x1000
100007d0:	0c0003ff 	jal	10000ffc <delay_ms>
100007d4:	24040050 	li	a0,80
100007d8:	8e44524c 	lw	a0,21068(s2)
100007dc:	8e225248 	lw	v0,21064(s1)
100007e0:	24840004 	addiu	a0,a0,4
100007e4:	24420004 	addiu	v0,v0,4
100007e8:	00820018 	mult	a0,v0
100007ec:	00002012 	mflo	a0
100007f0:	0c00070f 	jal	10001c3c <malloc>
100007f4:	00000000 	nop
100007f8:	afa20054 	sw	v0,84(sp)
100007fc:	8e46524c 	lw	a2,21068(s2)
10000800:	8e225248 	lw	v0,21064(s1)
10000804:	24c60004 	addiu	a2,a2,4
10000808:	24420004 	addiu	v0,v0,4
1000080c:	00c20018 	mult	a2,v0
10000810:	8fa40054 	lw	a0,84(sp)
10000814:	00003012 	mflo	a2
10000818:	0c0006f5 	jal	10001bd4 <memset>
1000081c:	00002821 	move	a1,zero
10000820:	8e46524c 	lw	a2,21068(s2)
10000824:	8e255248 	lw	a1,21064(s1)
10000828:	24c20004 	addiu	v0,a2,4
1000082c:	24a30004 	addiu	v1,a1,4
10000830:	00021400 	sll	v0,v0,0x10
10000834:	8fa70054 	lw	a3,84(sp)
10000838:	00021403 	sra	v0,v0,0x10
1000083c:	00052c00 	sll	a1,a1,0x10
10000840:	00063400 	sll	a2,a2,0x10
10000844:	00031c00 	sll	v1,v1,0x10
10000848:	3c041000 	lui	a0,0x1000
1000084c:	00031c03 	sra	v1,v1,0x10
10000850:	00052c03 	sra	a1,a1,0x10
10000854:	00063403 	sra	a2,a2,0x10
10000858:	24844e48 	addiu	a0,a0,20040
1000085c:	afa20014 	sw	v0,20(sp)
10000860:	24020004 	li	v0,4
10000864:	afa30010 	sw	v1,16(sp)
10000868:	0c00095b 	jal	1000256c <set_matrix_borders>
1000086c:	afa20018 	sw	v0,24(sp)
10000870:	8e44524c 	lw	a0,21068(s2)
10000874:	8e225248 	lw	v0,21064(s1)
10000878:	00000000 	nop
1000087c:	00820018 	mult	a0,v0
10000880:	00002012 	mflo	a0
10000884:	0c00070f 	jal	10001c3c <malloc>
10000888:	00000000 	nop
1000088c:	0040b021 	move	s6,v0
10000890:	8e44524c 	lw	a0,21068(s2)
10000894:	8e225248 	lw	v0,21064(s1)
10000898:	00000000 	nop
1000089c:	00820018 	mult	a0,v0
100008a0:	00002012 	mflo	a0
100008a4:	0c00070f 	jal	10001c3c <malloc>
100008a8:	00000000 	nop
100008ac:	00408021 	move	s0,v0
100008b0:	8e46524c 	lw	a2,21068(s2)
100008b4:	8e225248 	lw	v0,21064(s1)
100008b8:	240500ff 	li	a1,255
100008bc:	00c20018 	mult	a2,v0
100008c0:	00003012 	mflo	a2
100008c4:	0c0006f5 	jal	10001bd4 <memset>
100008c8:	02c02021 	move	a0,s6
100008cc:	8e265248 	lw	a2,21064(s1)
100008d0:	8e45524c 	lw	a1,21068(s2)
100008d4:	04c00154 	bltz	a2,10000e28 <master+0x6a8>
100008d8:	00c0b821 	move	s7,a2
100008dc:	0017b903 	sra	s7,s7,0x4
100008e0:	04a0014f 	bltz	a1,10000e20 <master+0x6a0>
100008e4:	00a01021 	move	v0,a1
100008e8:	00021103 	sra	v0,v0,0x4
100008ec:	02e20018 	mult	s7,v0
100008f0:	24a50004 	addiu	a1,a1,4
100008f4:	24c60004 	addiu	a2,a2,4
100008f8:	8fa40054 	lw	a0,84(sp)
100008fc:	00063400 	sll	a2,a2,0x10
10000900:	00052c00 	sll	a1,a1,0x10
10000904:	27a3003c 	addiu	v1,sp,60
10000908:	00063403 	sra	a2,a2,0x10
1000090c:	00052c03 	sra	a1,a1,0x10
10000910:	afa30060 	sw	v1,96(sp)
10000914:	afa00050 	sw	zero,80(sp)
10000918:	26150002 	addiu	s5,s0,2
1000091c:	0000b812 	mflo	s7
10000920:	0c0008b0 	jal	100022c0 <matrix_print>
10000924:	32f700ff 	andi	s7,s7,0xff
10000928:	3c041000 	lui	a0,0x1000
1000092c:	02e02821 	move	a1,s7
10000930:	0c0006ff 	jal	10001bfc <printf>
10000934:	248443e8 	addiu	a0,a0,17384
10000938:	0c00070f 	jal	10001c3c <malloc>
1000093c:	00172100 	sll	a0,s7,0x4
10000940:	0c0004ad 	jal	100012b4 <_readcounter>
10000944:	0040f021 	move	s8,v0
10000948:	afa2005c 	sw	v0,92(sp)
1000094c:	24020010 	li	v0,16
10000950:	afa2002c 	sw	v0,44(sp)
10000954:	afa20028 	sw	v0,40(sp)
10000958:	8fa30060 	lw	v1,96(sp)
1000095c:	26e2ffff 	addiu	v0,s7,-1
10000960:	0000a021 	move	s4,zero
10000964:	24130001 	li	s3,1
10000968:	afa00034 	sw	zero,52(sp)
1000096c:	afa00030 	sw	zero,48(sp)
10000970:	afa20058 	sw	v0,88(sp)
10000974:	8fa40058 	lw	a0,88(sp)
10000978:	00000000 	nop
1000097c:	0284102a 	slt	v0,s4,a0
10000980:	1440009b 	bnez	v0,10000bf0 <master+0x470>
10000984:	02002021 	move	a0,s0
10000988:	26730001 	addiu	s3,s3,1
1000098c:	24020006 	li	v0,6
10000990:	1662fff8 	bne	s3,v0,10000974 <master+0x1f4>
10000994:	24630004 	addiu	v1,v1,4
10000998:	00009821 	move	s3,zero
1000099c:	8e46524c 	lw	a2,21068(s2)
100009a0:	8e225248 	lw	v0,21064(s1)
100009a4:	02002021 	move	a0,s0
100009a8:	00c20018 	mult	a2,v0
100009ac:	00003012 	mflo	a2
100009b0:	0c0006f5 	jal	10001bd4 <memset>
100009b4:	240500ff 	li	a1,255
100009b8:	27a50022 	addiu	a1,sp,34
100009bc:	27a40024 	addiu	a0,sp,36
100009c0:	02003021 	move	a2,s0
100009c4:	27a70020 	addiu	a3,sp,32
100009c8:	0c000cc7 	jal	1000331c <hf_recvack>
100009cc:	afa00010 	sw	zero,16(sp)
100009d0:	3045ffff 	andi	a1,v0,0xffff
100009d4:	14a00081 	bnez	a1,10000bdc <master+0x45c>
100009d8:	3c041000 	lui	a0,0x1000
100009dc:	97a50024 	lhu	a1,36(sp)
100009e0:	3c021000 	lui	v0,0x1000
100009e4:	0c0006ff 	jal	10001bfc <printf>
100009e8:	24444498 	addiu	a0,v0,17560
100009ec:	92050001 	lbu	a1,1(s0)
100009f0:	92060000 	lbu	a2,0(s0)
100009f4:	0c0008b0 	jal	100022c0 <matrix_print>
100009f8:	02a02021 	move	a0,s5
100009fc:	97a20024 	lhu	v0,36(sp)
10000a00:	27a30020 	addiu	v1,sp,32
10000a04:	00021080 	sll	v0,v0,0x2
10000a08:	00621021 	addu	v0,v1,v0
10000a0c:	8c420018 	lw	v0,24(v0)
10000a10:	8626524a 	lh	a2,21066(s1)
10000a14:	00021180 	sll	v0,v0,0x6
10000a18:	03c21021 	addu	v0,s8,v0
10000a1c:	84430006 	lh	v1,6(v0)
10000a20:	8647524e 	lh	a3,21070(s2)
10000a24:	afa30010 	sw	v1,16(sp)
10000a28:	84430002 	lh	v1,2(v0)
10000a2c:	02a02821 	move	a1,s5
10000a30:	afa30014 	sw	v1,20(sp)
10000a34:	8443000e 	lh	v1,14(v0)
10000a38:	02c02021 	move	a0,s6
10000a3c:	afa30018 	sw	v1,24(sp)
10000a40:	8442000a 	lh	v0,10(v0)
10000a44:	26730001 	addiu	s3,s3,1
10000a48:	0c000921 	jal	10002484 <set_sub_matrix>
10000a4c:	afa2001c 	sw	v0,28(sp)
10000a50:	8625524a 	lh	a1,21066(s1)
10000a54:	8646524e 	lh	a2,21070(s2)
10000a58:	02c02021 	move	a0,s6
10000a5c:	0c0008b0 	jal	100022c0 <matrix_print>
10000a60:	327300ff 	andi	s3,s3,0xff
10000a64:	127700bc 	beq	s3,s7,10000d58 <master+0x5d8>
10000a68:	0297102a 	slt	v0,s4,s7
10000a6c:	1040ffcb 	beqz	v0,1000099c <master+0x21c>
10000a70:	3c031000 	lui	v1,0x1000
10000a74:	3c041000 	lui	a0,0x1000
10000a78:	8c86524c 	lw	a2,21068(a0)
10000a7c:	8c625248 	lw	v0,21064(v1)
10000a80:	02002021 	move	a0,s0
10000a84:	00c20018 	mult	a2,v0
10000a88:	00003012 	mflo	a2
10000a8c:	0c0006f5 	jal	10001bd4 <memset>
10000a90:	240500ff 	li	a1,255
10000a94:	8fa2002c 	lw	v0,44(sp)
10000a98:	3c031000 	lui	v1,0x1000
10000a9c:	a2020000 	sb	v0,0(s0)
10000aa0:	8fa20028 	lw	v0,40(sp)
10000aa4:	8fa40054 	lw	a0,84(sp)
10000aa8:	a2020001 	sb	v0,1(s0)
10000aac:	3c021000 	lui	v0,0x1000
10000ab0:	8c465248 	lw	a2,21064(v0)
10000ab4:	8c67524c 	lw	a3,21068(v1)
10000ab8:	8fa2002c 	lw	v0,44(sp)
10000abc:	8fa30028 	lw	v1,40(sp)
10000ac0:	24c60004 	addiu	a2,a2,4
10000ac4:	24e70004 	addiu	a3,a3,4
10000ac8:	24630004 	addiu	v1,v1,4
10000acc:	24420004 	addiu	v0,v0,4
10000ad0:	87a90032 	lh	t1,50(sp)
10000ad4:	87a80036 	lh	t0,54(sp)
10000ad8:	00073c00 	sll	a3,a3,0x10
10000adc:	00031c00 	sll	v1,v1,0x10
10000ae0:	00021400 	sll	v0,v0,0x10
10000ae4:	00063400 	sll	a2,a2,0x10
10000ae8:	00031c03 	sra	v1,v1,0x10
10000aec:	00073c03 	sra	a3,a3,0x10
10000af0:	00021403 	sra	v0,v0,0x10
10000af4:	02a02821 	move	a1,s5
10000af8:	00063403 	sra	a2,a2,0x10
10000afc:	afa90010 	sw	t1,16(sp)
10000b00:	afa80014 	sw	t0,20(sp)
10000b04:	afa30018 	sw	v1,24(sp)
10000b08:	0c0008e7 	jal	1000239c <get_sub_matrix>
10000b0c:	afa2001c 	sw	v0,28(sp)
10000b10:	97a60024 	lhu	a2,36(sp)
10000b14:	3c041000 	lui	a0,0x1000
10000b18:	24844418 	addiu	a0,a0,17432
10000b1c:	0c0006ff 	jal	10001bfc <printf>
10000b20:	02802821 	move	a1,s4
10000b24:	8fa50028 	lw	a1,40(sp)
10000b28:	8fa6002c 	lw	a2,44(sp)
10000b2c:	24a50004 	addiu	a1,a1,4
10000b30:	24c60004 	addiu	a2,a2,4
10000b34:	00052c00 	sll	a1,a1,0x10
10000b38:	00063400 	sll	a2,a2,0x10
10000b3c:	02a02021 	move	a0,s5
10000b40:	00052c03 	sra	a1,a1,0x10
10000b44:	0c0008b0 	jal	100022c0 <matrix_print>
10000b48:	00063403 	sra	a2,a2,0x10
10000b4c:	8fa70028 	lw	a3,40(sp)
10000b50:	8fa2002c 	lw	v0,44(sp)
10000b54:	24e70004 	addiu	a3,a3,4
10000b58:	24420004 	addiu	v0,v0,4
10000b5c:	00e20018 	mult	a3,v0
10000b60:	97a40024 	lhu	a0,36(sp)
10000b64:	240503e8 	li	a1,1000
10000b68:	240201f4 	li	v0,500
10000b6c:	02003021 	move	a2,s0
10000b70:	afa00010 	sw	zero,16(sp)
10000b74:	afa20014 	sw	v0,20(sp)
10000b78:	00003812 	mflo	a3
10000b7c:	0c000ce2 	jal	10003388 <hf_sendack>
10000b80:	24e70002 	addiu	a3,a3,2
10000b84:	3045ffff 	andi	a1,v0,0xffff
10000b88:	14a00096 	bnez	a1,10000de4 <master+0x664>
10000b8c:	3c041000 	lui	a0,0x1000
10000b90:	97a20024 	lhu	v0,36(sp)
10000b94:	27a30020 	addiu	v1,sp,32
10000b98:	00021080 	sll	v0,v0,0x2
10000b9c:	00621021 	addu	v0,v1,v0
10000ba0:	ac540018 	sw	s4,24(v0)
10000ba4:	8fa50050 	lw	a1,80(sp)
10000ba8:	27a2002c 	addiu	v0,sp,44
10000bac:	afa20010 	sw	v0,16(sp)
10000bb0:	03c02021 	move	a0,s8
10000bb4:	27a20028 	addiu	v0,sp,40
10000bb8:	27a60034 	addiu	a2,sp,52
10000bbc:	27a70030 	addiu	a3,sp,48
10000bc0:	0c000193 	jal	1000064c <next_data>
10000bc4:	afa20014 	sw	v0,20(sp)
10000bc8:	8fa30050 	lw	v1,80(sp)
10000bcc:	26940001 	addiu	s4,s4,1
10000bd0:	24630010 	addiu	v1,v1,16
10000bd4:	08000267 	j	1000099c <master+0x21c>
10000bd8:	afa30050 	sw	v1,80(sp)
10000bdc:	97a60024 	lhu	a2,36(sp)
10000be0:	0c0006ff 	jal	10001bfc <printf>
10000be4:	2484446c 	addiu	a0,a0,17516
10000be8:	08000277 	j	100009dc <master+0x25c>
10000bec:	00000000 	nop
10000bf0:	8fa60028 	lw	a2,40(sp)
10000bf4:	8fa2002c 	lw	v0,44(sp)
10000bf8:	24c60004 	addiu	a2,a2,4
10000bfc:	24420004 	addiu	v0,v0,4
10000c00:	00c20018 	mult	a2,v0
10000c04:	00002821 	move	a1,zero
10000c08:	afa30060 	sw	v1,96(sp)
10000c0c:	00003012 	mflo	a2
10000c10:	0c0006f5 	jal	10001bd4 <memset>
10000c14:	24c60002 	addiu	a2,a2,2
10000c18:	8fa2002c 	lw	v0,44(sp)
10000c1c:	8fa40054 	lw	a0,84(sp)
10000c20:	a2020000 	sb	v0,0(s0)
10000c24:	8fa20028 	lw	v0,40(sp)
10000c28:	02a02821 	move	a1,s5
10000c2c:	a2020001 	sb	v0,1(s0)
10000c30:	8e265248 	lw	a2,21064(s1)
10000c34:	8e47524c 	lw	a3,21068(s2)
10000c38:	8fa80028 	lw	t0,40(sp)
10000c3c:	8fa2002c 	lw	v0,44(sp)
10000c40:	24c60004 	addiu	a2,a2,4
10000c44:	24e70004 	addiu	a3,a3,4
10000c48:	25080004 	addiu	t0,t0,4
10000c4c:	24420004 	addiu	v0,v0,4
10000c50:	87aa0032 	lh	t2,50(sp)
10000c54:	87a90036 	lh	t1,54(sp)
10000c58:	00073c00 	sll	a3,a3,0x10
10000c5c:	00084400 	sll	t0,t0,0x10
10000c60:	00021400 	sll	v0,v0,0x10
10000c64:	00063400 	sll	a2,a2,0x10
10000c68:	00084403 	sra	t0,t0,0x10
10000c6c:	00073c03 	sra	a3,a3,0x10
10000c70:	00021403 	sra	v0,v0,0x10
10000c74:	00063403 	sra	a2,a2,0x10
10000c78:	afaa0010 	sw	t2,16(sp)
10000c7c:	afa90014 	sw	t1,20(sp)
10000c80:	afa80018 	sw	t0,24(sp)
10000c84:	0c0008e7 	jal	1000239c <get_sub_matrix>
10000c88:	afa2001c 	sw	v0,28(sp)
10000c8c:	3c041000 	lui	a0,0x1000
10000c90:	24844418 	addiu	a0,a0,17432
10000c94:	02802821 	move	a1,s4
10000c98:	0c0006ff 	jal	10001bfc <printf>
10000c9c:	02603021 	move	a2,s3
10000ca0:	8fa50028 	lw	a1,40(sp)
10000ca4:	8fa6002c 	lw	a2,44(sp)
10000ca8:	24a50004 	addiu	a1,a1,4
10000cac:	24c60004 	addiu	a2,a2,4
10000cb0:	00052c00 	sll	a1,a1,0x10
10000cb4:	00063400 	sll	a2,a2,0x10
10000cb8:	02a02021 	move	a0,s5
10000cbc:	00052c03 	sra	a1,a1,0x10
10000cc0:	0c0008b0 	jal	100022c0 <matrix_print>
10000cc4:	00063403 	sra	a2,a2,0x10
10000cc8:	8fa70028 	lw	a3,40(sp)
10000ccc:	8fa2002c 	lw	v0,44(sp)
10000cd0:	24e70004 	addiu	a3,a3,4
10000cd4:	24420004 	addiu	v0,v0,4
10000cd8:	00e20018 	mult	a3,v0
10000cdc:	240503e8 	li	a1,1000
10000ce0:	240201f4 	li	v0,500
10000ce4:	02602021 	move	a0,s3
10000ce8:	02003021 	move	a2,s0
10000cec:	afa00010 	sw	zero,16(sp)
10000cf0:	afa20014 	sw	v0,20(sp)
10000cf4:	00003812 	mflo	a3
10000cf8:	0c000ce2 	jal	10003388 <hf_sendack>
10000cfc:	24e70002 	addiu	a3,a3,2
10000d00:	3045ffff 	andi	a1,v0,0xffff
10000d04:	8fa30060 	lw	v1,96(sp)
10000d08:	14a0003b 	bnez	a1,10000df8 <master+0x678>
10000d0c:	3c041000 	lui	a0,0x1000
10000d10:	27a2002c 	addiu	v0,sp,44
10000d14:	8fa50050 	lw	a1,80(sp)
10000d18:	ac740000 	sw	s4,0(v1)
10000d1c:	03c02021 	move	a0,s8
10000d20:	afa20010 	sw	v0,16(sp)
10000d24:	27a60034 	addiu	a2,sp,52
10000d28:	27a20028 	addiu	v0,sp,40
10000d2c:	27a70030 	addiu	a3,sp,48
10000d30:	afa30060 	sw	v1,96(sp)
10000d34:	0c000193 	jal	1000064c <next_data>
10000d38:	afa20014 	sw	v0,20(sp)
10000d3c:	8fa20050 	lw	v0,80(sp)
10000d40:	00000000 	nop
10000d44:	24420010 	addiu	v0,v0,16
10000d48:	afa20050 	sw	v0,80(sp)
10000d4c:	8fa30060 	lw	v1,96(sp)
10000d50:	08000262 	j	10000988 <master+0x208>
10000d54:	26940001 	addiu	s4,s4,1
10000d58:	3c041000 	lui	a0,0x1000
10000d5c:	0c0006ff 	jal	10001bfc <printf>
10000d60:	248444bc 	addiu	a0,a0,17596
10000d64:	0c0004ad 	jal	100012b4 <_readcounter>
10000d68:	00000000 	nop
10000d6c:	8fa3005c 	lw	v1,92(sp)
10000d70:	3c041000 	lui	a0,0x1000
10000d74:	00432823 	subu	a1,v0,v1
10000d78:	0c0006ff 	jal	10001bfc <printf>
10000d7c:	248444e8 	addiu	a0,a0,17640
10000d80:	3c021000 	lui	v0,0x1000
10000d84:	8445524a 	lh	a1,21066(v0)
10000d88:	3c021000 	lui	v0,0x1000
10000d8c:	8446524e 	lh	a2,21070(v0)
10000d90:	0c0008b0 	jal	100022c0 <matrix_print>
10000d94:	02c02021 	move	a0,s6
10000d98:	0c000137 	jal	100004dc <print_image>
10000d9c:	02c02021 	move	a0,s6
10000da0:	3c041000 	lui	a0,0x1000
10000da4:	0c0006ff 	jal	10001bfc <printf>
10000da8:	24844504 	addiu	a0,a0,17668
10000dac:	0c000d36 	jal	100034d8 <panic>
10000db0:	00002021 	move	a0,zero
10000db4:	8fbf008c 	lw	ra,140(sp)
10000db8:	8fbe0088 	lw	s8,136(sp)
10000dbc:	8fb70084 	lw	s7,132(sp)
10000dc0:	8fb60080 	lw	s6,128(sp)
10000dc4:	8fb5007c 	lw	s5,124(sp)
10000dc8:	8fb40078 	lw	s4,120(sp)
10000dcc:	8fb30074 	lw	s3,116(sp)
10000dd0:	8fb20070 	lw	s2,112(sp)
10000dd4:	8fb1006c 	lw	s1,108(sp)
10000dd8:	8fb00068 	lw	s0,104(sp)
10000ddc:	03e00008 	jr	ra
10000de0:	27bd0090 	addiu	sp,sp,144
10000de4:	97a60024 	lhu	a2,36(sp)
10000de8:	0c0006ff 	jal	10001bfc <printf>
10000dec:	24844440 	addiu	a0,a0,17472
10000df0:	080002e4 	j	10000b90 <master+0x410>
10000df4:	00000000 	nop
10000df8:	97a60024 	lhu	a2,36(sp)
10000dfc:	0c0006ff 	jal	10001bfc <printf>
10000e00:	24844440 	addiu	a0,a0,17472
10000e04:	8fa30060 	lw	v1,96(sp)
10000e08:	08000345 	j	10000d14 <master+0x594>
10000e0c:	27a2002c 	addiu	v0,sp,44
10000e10:	0c000d36 	jal	100034d8 <panic>
10000e14:	240400ff 	li	a0,255
10000e18:	080001f3 	j	100007cc <master+0x4c>
10000e1c:	3c121000 	lui	s2,0x1000
10000e20:	0800023a 	j	100008e8 <master+0x168>
10000e24:	24a2000f 	addiu	v0,a1,15
10000e28:	08000237 	j	100008dc <master+0x15c>
10000e2c:	24d7000f 	addiu	s7,a2,15

10000e30 <app_main>:
10000e30:	27bdffe0 	addiu	sp,sp,-32
10000e34:	afbf001c 	sw	ra,28(sp)
10000e38:	0c000a8c 	jal	10002a30 <hf_cpuid>
10000e3c:	00000000 	nop
10000e40:	1040001e 	beqz	v0,10000ebc <app_main+0x8c>
10000e44:	3c021000 	lui	v0,0x1000
10000e48:	0c000a8c 	jal	10002a30 <hf_cpuid>
10000e4c:	00000000 	nop
10000e50:	24030001 	li	v1,1
10000e54:	10430027 	beq	v0,v1,10000ef4 <app_main+0xc4>
10000e58:	3c021000 	lui	v0,0x1000
10000e5c:	0c000a8c 	jal	10002a30 <hf_cpuid>
10000e60:	00000000 	nop
10000e64:	24030002 	li	v1,2
10000e68:	10430030 	beq	v0,v1,10000f2c <app_main+0xfc>
10000e6c:	3c021000 	lui	v0,0x1000
10000e70:	0c000a8c 	jal	10002a30 <hf_cpuid>
10000e74:	00000000 	nop
10000e78:	24030003 	li	v1,3
10000e7c:	10430037 	beq	v0,v1,10000f5c <app_main+0x12c>
10000e80:	3c021000 	lui	v0,0x1000
10000e84:	0c000a8c 	jal	10002a30 <hf_cpuid>
10000e88:	00000000 	nop
10000e8c:	24030004 	li	v1,4
10000e90:	1043003e 	beq	v0,v1,10000f8c <app_main+0x15c>
10000e94:	3c021000 	lui	v0,0x1000
10000e98:	0c000a8c 	jal	10002a30 <hf_cpuid>
10000e9c:	00000000 	nop
10000ea0:	24030005 	li	v1,5
10000ea4:	10430045 	beq	v0,v1,10000fbc <app_main+0x18c>
10000ea8:	3c021000 	lui	v0,0x1000
10000eac:	8fbf001c 	lw	ra,28(sp)
10000eb0:	00000000 	nop
10000eb4:	03e00008 	jr	ra
10000eb8:	27bd0020 	addiu	sp,sp,32
10000ebc:	24424520 	addiu	v0,v0,17696
10000ec0:	3c041000 	lui	a0,0x1000
10000ec4:	afa20010 	sw	v0,16(sp)
10000ec8:	24840780 	addiu	a0,a0,1920
10000ecc:	24020800 	li	v0,2048
10000ed0:	00002821 	move	a1,zero
10000ed4:	00003021 	move	a2,zero
10000ed8:	00003821 	move	a3,zero
10000edc:	0c000fdf 	jal	10003f7c <hf_spawn>
10000ee0:	afa20014 	sw	v0,20(sp)
10000ee4:	8fbf001c 	lw	ra,28(sp)
10000ee8:	00000000 	nop
10000eec:	03e00008 	jr	ra
10000ef0:	27bd0020 	addiu	sp,sp,32
10000ef4:	24424528 	addiu	v0,v0,17704
10000ef8:	3c041000 	lui	a0,0x1000
10000efc:	afa20010 	sw	v0,16(sp)
10000f00:	248402b4 	addiu	a0,a0,692
10000f04:	24020800 	li	v0,2048
10000f08:	00002821 	move	a1,zero
10000f0c:	00003021 	move	a2,zero
10000f10:	00003821 	move	a3,zero
10000f14:	0c000fdf 	jal	10003f7c <hf_spawn>
10000f18:	afa20014 	sw	v0,20(sp)
10000f1c:	8fbf001c 	lw	ra,28(sp)
10000f20:	00000000 	nop
10000f24:	03e00008 	jr	ra
10000f28:	27bd0020 	addiu	sp,sp,32
10000f2c:	24424530 	addiu	v0,v0,17712
10000f30:	3c041000 	lui	a0,0x1000
10000f34:	afa20010 	sw	v0,16(sp)
10000f38:	248402b4 	addiu	a0,a0,692
10000f3c:	00002821 	move	a1,zero
10000f40:	00003021 	move	a2,zero
10000f44:	00003821 	move	a3,zero
10000f48:	24020800 	li	v0,2048
10000f4c:	0c000fdf 	jal	10003f7c <hf_spawn>
10000f50:	afa20014 	sw	v0,20(sp)
10000f54:	080003ab 	j	10000eac <app_main+0x7c>
10000f58:	00000000 	nop
10000f5c:	24424538 	addiu	v0,v0,17720
10000f60:	3c041000 	lui	a0,0x1000
10000f64:	afa20010 	sw	v0,16(sp)
10000f68:	248402b4 	addiu	a0,a0,692
10000f6c:	00002821 	move	a1,zero
10000f70:	00003021 	move	a2,zero
10000f74:	00003821 	move	a3,zero
10000f78:	24020800 	li	v0,2048
10000f7c:	0c000fdf 	jal	10003f7c <hf_spawn>
10000f80:	afa20014 	sw	v0,20(sp)
10000f84:	080003ab 	j	10000eac <app_main+0x7c>
10000f88:	00000000 	nop
10000f8c:	24424540 	addiu	v0,v0,17728
10000f90:	3c041000 	lui	a0,0x1000
10000f94:	afa20010 	sw	v0,16(sp)
10000f98:	248402b4 	addiu	a0,a0,692
10000f9c:	00002821 	move	a1,zero
10000fa0:	00003021 	move	a2,zero
10000fa4:	00003821 	move	a3,zero
10000fa8:	24020800 	li	v0,2048
10000fac:	0c000fdf 	jal	10003f7c <hf_spawn>
10000fb0:	afa20014 	sw	v0,20(sp)
10000fb4:	080003ab 	j	10000eac <app_main+0x7c>
10000fb8:	00000000 	nop
10000fbc:	24424548 	addiu	v0,v0,17736
10000fc0:	3c041000 	lui	a0,0x1000
10000fc4:	afa20010 	sw	v0,16(sp)
10000fc8:	248402b4 	addiu	a0,a0,692
10000fcc:	00002821 	move	a1,zero
10000fd0:	00003021 	move	a2,zero
10000fd4:	00003821 	move	a3,zero
10000fd8:	24020800 	li	v0,2048
10000fdc:	0c000fdf 	jal	10003f7c <hf_spawn>
10000fe0:	afa20014 	sw	v0,20(sp)
10000fe4:	080003ab 	j	10000eac <app_main+0x7c>
10000fe8:	00000000 	nop

10000fec <putchar>:
10000fec:	3c022000 	lui	v0,0x2000
10000ff0:	ac4400d0 	sw	a0,208(v0)
10000ff4:	03e00008 	jr	ra
10000ff8:	00000000 	nop

10000ffc <delay_ms>:
10000ffc:	3c022000 	lui	v0,0x2000
10001000:	8c420060 	lw	v0,96(v0)
10001004:	27bdfff0 	addiu	sp,sp,-16
10001008:	3c03017d 	lui	v1,0x17d
1000100c:	afa20008 	sw	v0,8(sp)
10001010:	24637840 	addiu	v1,v1,30784
10001014:	afa00000 	sw	zero,0(sp)
10001018:	3c022000 	lui	v0,0x2000
1000101c:	afa00004 	sw	zero,4(sp)
10001020:	0800041a 	j	10001068 <delay_ms+0x6c>
10001024:	240561a8 	li	a1,25000
10001028:	8fa8000c 	lw	t0,12(sp)
1000102c:	8fa70008 	lw	a3,8(sp)
10001030:	8fa60004 	lw	a2,4(sp)
10001034:	00000000 	nop
10001038:	01063021 	addu	a2,t0,a2
1000103c:	00c33021 	addu	a2,a2,v1
10001040:	00c73023 	subu	a2,a2,a3
10001044:	afa60004 	sw	a2,4(sp)
10001048:	8fa6000c 	lw	a2,12(sp)
1000104c:	00000000 	nop
10001050:	afa60008 	sw	a2,8(sp)
10001054:	8fa60004 	lw	a2,4(sp)
10001058:	00000000 	nop
1000105c:	2cc661a8 	sltiu	a2,a2,25000
10001060:	10c0001e 	beqz	a2,100010dc <delay_ms+0xe0>
10001064:	00000000 	nop
10001068:	8fa60000 	lw	a2,0(sp)
1000106c:	00000000 	nop
10001070:	00c4302b 	sltu	a2,a2,a0
10001074:	10c00029 	beqz	a2,1000111c <delay_ms+0x120>
10001078:	00000000 	nop
1000107c:	8c460060 	lw	a2,96(v0)
10001080:	00000000 	nop
10001084:	afa6000c 	sw	a2,12(sp)
10001088:	8fa7000c 	lw	a3,12(sp)
1000108c:	8fa60008 	lw	a2,8(sp)
10001090:	00000000 	nop
10001094:	00e6302b 	sltu	a2,a3,a2
10001098:	14c0ffe3 	bnez	a2,10001028 <delay_ms+0x2c>
1000109c:	00000000 	nop
100010a0:	8fa6000c 	lw	a2,12(sp)
100010a4:	8fa70008 	lw	a3,8(sp)
100010a8:	8fa80004 	lw	t0,4(sp)
100010ac:	00000000 	nop
100010b0:	01063021 	addu	a2,t0,a2
100010b4:	00c73023 	subu	a2,a2,a3
100010b8:	afa60004 	sw	a2,4(sp)
100010bc:	8fa6000c 	lw	a2,12(sp)
100010c0:	00000000 	nop
100010c4:	afa60008 	sw	a2,8(sp)
100010c8:	8fa60004 	lw	a2,4(sp)
100010cc:	00000000 	nop
100010d0:	2cc661a8 	sltiu	a2,a2,25000
100010d4:	14c0ffe4 	bnez	a2,10001068 <delay_ms+0x6c>
100010d8:	00000000 	nop
100010dc:	8fa70004 	lw	a3,4(sp)
100010e0:	8fa60000 	lw	a2,0(sp)
100010e4:	00e5001b 	divu	zero,a3,a1
100010e8:	00004012 	mflo	t0
100010ec:	01063021 	addu	a2,t0,a2
100010f0:	afa60000 	sw	a2,0(sp)
100010f4:	8fa60004 	lw	a2,4(sp)
100010f8:	00000000 	nop
100010fc:	00c5001b 	divu	zero,a2,a1
10001100:	00003010 	mfhi	a2
10001104:	afa60004 	sw	a2,4(sp)
10001108:	8fa60000 	lw	a2,0(sp)
1000110c:	00000000 	nop
10001110:	00c4302b 	sltu	a2,a2,a0
10001114:	14c0ffd9 	bnez	a2,1000107c <delay_ms+0x80>
10001118:	00000000 	nop
1000111c:	03e00008 	jr	ra
10001120:	27bd0010 	addiu	sp,sp,16

10001124 <_hardware_init>:
10001124:	3c022000 	lui	v0,0x2000
10001128:	3c03a5a5 	lui	v1,0xa5a5
1000112c:	8c4400e0 	lw	a0,224(v0)
10001130:	3463a5a5 	ori	v1,v1,0xa5a5
10001134:	14830006 	bne	a0,v1,10001150 <_hardware_init+0x2c>
10001138:	3c03017d 	lui	v1,0x17d
1000113c:	24637840 	addiu	v1,v1,30784
10001140:	ac4300a0 	sw	v1,160(v0)
10001144:	3c030004 	lui	v1,0x4
10001148:	ac4300b0 	sw	v1,176(v0)
1000114c:	3c022000 	lui	v0,0x2000
10001150:	ac400010 	sw	zero,16(v0)
10001154:	03e00008 	jr	ra
10001158:	00000000 	nop

1000115c <_vm_init>:
1000115c:	3c041000 	lui	a0,0x1000
10001160:	27bdffe8 	addiu	sp,sp,-24
10001164:	afbf0014 	sw	ra,20(sp)
10001168:	0c00056f 	jal	100015bc <kprintf>
1000116c:	24844550 	addiu	a0,a0,17744
10001170:	3c041000 	lui	a0,0x1000
10001174:	3c050007 	lui	a1,0x7
10001178:	8fbf0014 	lw	ra,20(sp)
1000117c:	248464ec 	addiu	a0,a0,25836
10001180:	34a5a120 	ori	a1,a1,0xa120
10001184:	0800089b 	j	1000226c <heapinit>
10001188:	27bd0018 	addiu	sp,sp,24

1000118c <_sched_init>:
1000118c:	3c041000 	lui	a0,0x1000
10001190:	0800056f 	j	100015bc <kprintf>
10001194:	24844564 	addiu	a0,a0,17764

10001198 <_timer_init>:
10001198:	27bdffe8 	addiu	sp,sp,-24
1000119c:	3c041000 	lui	a0,0x1000
100011a0:	afb00010 	sw	s0,16(sp)
100011a4:	24844578 	addiu	a0,a0,17784
100011a8:	afbf0014 	sw	ra,20(sp)
100011ac:	0c00056f 	jal	100015bc <kprintf>
100011b0:	3c101000 	lui	s0,0x1000
100011b4:	26053950 	addiu	a1,s0,14672
100011b8:	0c0004f1 	jal	100013c4 <_irq_register>
100011bc:	24040008 	li	a0,8
100011c0:	26053950 	addiu	a1,s0,14672
100011c4:	0c0004f1 	jal	100013c4 <_irq_register>
100011c8:	24040004 	li	a0,4
100011cc:	3c022000 	lui	v0,0x2000
100011d0:	8c430010 	lw	v1,16(v0)
100011d4:	8fbf0014 	lw	ra,20(sp)
100011d8:	34630008 	ori	v1,v1,0x8
100011dc:	8fb00010 	lw	s0,16(sp)
100011e0:	ac430010 	sw	v1,16(v0)
100011e4:	03e00008 	jr	ra
100011e8:	27bd0018 	addiu	sp,sp,24

100011ec <_irq_init>:
100011ec:	3c041000 	lui	a0,0x1000
100011f0:	0800056f 	j	100015bc <kprintf>
100011f4:	2484458c 	addiu	a0,a0,17804

100011f8 <_device_init>:
100011f8:	3c041000 	lui	a0,0x1000
100011fc:	27bdffe8 	addiu	sp,sp,-24
10001200:	afbf0014 	sw	ra,20(sp)
10001204:	0c00056f 	jal	100015bc <kprintf>
10001208:	248445a0 	addiu	a0,a0,17824
1000120c:	8fbf0014 	lw	ra,20(sp)
10001210:	08000a4b 	j	1000292c <ni_init>
10001214:	27bd0018 	addiu	sp,sp,24

10001218 <_task_init>:
10001218:	3c041000 	lui	a0,0x1000
1000121c:	0800056f 	j	100015bc <kprintf>
10001220:	248445b8 	addiu	a0,a0,17848

10001224 <_set_task_sp>:
10001224:	3084ffff 	andi	a0,a0,0xffff
10001228:	00041880 	sll	v1,a0,0x2
1000122c:	00041100 	sll	v0,a0,0x4
10001230:	00621021 	addu	v0,v1,v0
10001234:	00442023 	subu	a0,v0,a0
10001238:	3c021000 	lui	v0,0x1000
1000123c:	000420c0 	sll	a0,a0,0x3
10001240:	2442531c 	addiu	v0,v0,21276
10001244:	00822021 	addu	a0,a0,v0
10001248:	03e00008 	jr	ra
1000124c:	ac850060 	sw	a1,96(a0)

10001250 <_get_task_sp>:
10001250:	3084ffff 	andi	a0,a0,0xffff
10001254:	00041880 	sll	v1,a0,0x2
10001258:	00041100 	sll	v0,a0,0x4
1000125c:	00621021 	addu	v0,v1,v0
10001260:	00442023 	subu	a0,v0,a0
10001264:	3c021000 	lui	v0,0x1000
10001268:	2442531c 	addiu	v0,v0,21276
1000126c:	000420c0 	sll	a0,a0,0x3
10001270:	00822021 	addu	a0,a0,v0
10001274:	8c820060 	lw	v0,96(a0)
10001278:	03e00008 	jr	ra
1000127c:	00000000 	nop

10001280 <_set_task_tp>:
10001280:	3084ffff 	andi	a0,a0,0xffff
10001284:	00041880 	sll	v1,a0,0x2
10001288:	00041100 	sll	v0,a0,0x4
1000128c:	00621021 	addu	v0,v1,v0
10001290:	00442023 	subu	a0,v0,a0
10001294:	3c021000 	lui	v0,0x1000
10001298:	000420c0 	sll	a0,a0,0x3
1000129c:	2442531c 	addiu	v0,v0,21276
100012a0:	00822021 	addu	a0,a0,v0
100012a4:	03e00008 	jr	ra
100012a8:	ac850064 	sw	a1,100(a0)

100012ac <_cpu_idle>:
100012ac:	03e00008 	jr	ra
100012b0:	00000000 	nop

100012b4 <_readcounter>:
100012b4:	3c022000 	lui	v0,0x2000
100012b8:	8c420060 	lw	v0,96(v0)
100012bc:	03e00008 	jr	ra
100012c0:	00000000 	nop

100012c4 <_read_us>:
100012c4:	3c091000 	lui	t1,0x1000
100012c8:	8d225268 	lw	v0,21096(t1)
100012cc:	27bdffe8 	addiu	sp,sp,-24
100012d0:	afbf0014 	sw	ra,20(sp)
100012d4:	14400015 	bnez	v0,1000132c <_read_us+0x68>
100012d8:	3c032000 	lui	v1,0x2000
100012dc:	8c620060 	lw	v0,96(v1)
100012e0:	3c021000 	lui	v0,0x1000
100012e4:	8c42526c 	lw	v0,21100(v0)
100012e8:	8c630060 	lw	v1,96(v1)
100012ec:	3c032000 	lui	v1,0x2000
100012f0:	8c6a0060 	lw	t2,96(v1)
100012f4:	8c680060 	lw	t0,96(v1)
100012f8:	00402021 	move	a0,v0
100012fc:	3c031000 	lui	v1,0x1000
10001300:	01002821 	move	a1,t0
10001304:	24070019 	li	a3,25
10001308:	00003021 	move	a2,zero
1000130c:	ad2a5268 	sw	t2,21096(t1)
10001310:	ac625270 	sw	v0,21104(v1)
10001314:	0c000756 	jal	10001d58 <__udivdi3>
10001318:	ac685274 	sw	t0,21108(v1)
1000131c:	8fbf0014 	lw	ra,20(sp)
10001320:	00000000 	nop
10001324:	03e00008 	jr	ra
10001328:	27bd0018 	addiu	sp,sp,24
1000132c:	8c630060 	lw	v1,96(v1)
10001330:	00000000 	nop
10001334:	0062102b 	sltu	v0,v1,v0
10001338:	10400007 	beqz	v0,10001358 <_read_us+0x94>
1000133c:	00000000 	nop
10001340:	3c031000 	lui	v1,0x1000
10001344:	8c62526c 	lw	v0,21100(v1)
10001348:	00000000 	nop
1000134c:	24420001 	addiu	v0,v0,1
10001350:	080004bb 	j	100012ec <_read_us+0x28>
10001354:	ac62526c 	sw	v0,21100(v1)
10001358:	3c021000 	lui	v0,0x1000
1000135c:	8c42526c 	lw	v0,21100(v0)
10001360:	080004bc 	j	100012f0 <_read_us+0x2c>
10001364:	3c032000 	lui	v1,0x2000

10001368 <_timer_reset>:
10001368:	3c022000 	lui	v0,0x2000
1000136c:	8c430010 	lw	v1,16(v0)
10001370:	27bdffe8 	addiu	sp,sp,-24
10001374:	3863000c 	xori	v1,v1,0xc
10001378:	afbf0014 	sw	ra,20(sp)
1000137c:	ac430010 	sw	v1,16(v0)
10001380:	0c0004b1 	jal	100012c4 <_read_us>
10001384:	00000000 	nop
10001388:	3c021000 	lui	v0,0x1000
1000138c:	8c455264 	lw	a1,21092(v0)
10001390:	3c041000 	lui	a0,0x1000
10001394:	8fbf0014 	lw	ra,20(sp)
10001398:	00652823 	subu	a1,v1,a1
1000139c:	ac835260 	sw	v1,21088(a0)
100013a0:	3c041008 	lui	a0,0x1008
100013a4:	ac850620 	sw	a1,1568(a0)
100013a8:	ac435264 	sw	v1,21092(v0)
100013ac:	03e00008 	jr	ra
100013b0:	27bd0018 	addiu	sp,sp,24

100013b4 <_panic>:
100013b4:	3c02e000 	lui	v0,0xe000
100013b8:	ac400000 	sw	zero,0(v0)
100013bc:	03e00008 	jr	ra
100013c0:	00000000 	nop

100013c4 <_irq_register>:
100013c4:	3c031000 	lui	v1,0x1000
100013c8:	24635278 	addiu	v1,v1,21112
100013cc:	00001021 	move	v0,zero
100013d0:	24080001 	li	t0,1
100013d4:	24070020 	li	a3,32
100013d8:	00483004 	sllv	a2,t0,v0
100013dc:	00c43024 	and	a2,a2,a0
100013e0:	10c00002 	beqz	a2,100013ec <_irq_register+0x28>
100013e4:	24420001 	addiu	v0,v0,1
100013e8:	ac650000 	sw	a1,0(v1)
100013ec:	1447fffa 	bne	v0,a3,100013d8 <_irq_register+0x14>
100013f0:	24630004 	addiu	v1,v1,4
100013f4:	03e00008 	jr	ra
100013f8:	00000000 	nop

100013fc <_irq_handler>:
100013fc:	3c021008 	lui	v0,0x1008
10001400:	2442060c 	addiu	v0,v0,1548
10001404:	8c430010 	lw	v1,16(v0)
10001408:	27bdffe0 	addiu	sp,sp,-32
1000140c:	afb10014 	sw	s1,20(sp)
10001410:	24630001 	addiu	v1,v1,1
10001414:	3c111000 	lui	s1,0x1000
10001418:	afb20018 	sw	s2,24(sp)
1000141c:	afb00010 	sw	s0,16(sp)
10001420:	afbf001c 	sw	ra,28(sp)
10001424:	00808021 	move	s0,a0
10001428:	00a09021 	move	s2,a1
1000142c:	ac430010 	sw	v1,16(v0)
10001430:	26315278 	addiu	s1,s1,21112
10001434:	32020001 	andi	v0,s0,0x1
10001438:	10400007 	beqz	v0,10001458 <_irq_handler+0x5c>
1000143c:	00108042 	srl	s0,s0,0x1
10001440:	8e220000 	lw	v0,0(s1)
10001444:	00000000 	nop
10001448:	10400003 	beqz	v0,10001458 <_irq_handler+0x5c>
1000144c:	02402021 	move	a0,s2
10001450:	0040f809 	jalr	v0
10001454:	00000000 	nop
10001458:	1600fff6 	bnez	s0,10001434 <_irq_handler+0x38>
1000145c:	26310004 	addiu	s1,s1,4
10001460:	8fbf001c 	lw	ra,28(sp)
10001464:	8fb20018 	lw	s2,24(sp)
10001468:	8fb10014 	lw	s1,20(sp)
1000146c:	8fb00010 	lw	s0,16(sp)
10001470:	03e00008 	jr	ra
10001474:	27bd0020 	addiu	sp,sp,32

10001478 <_irq_mask_set>:
10001478:	27bdffe8 	addiu	sp,sp,-24
1000147c:	afb00010 	sw	s0,16(sp)
10001480:	00808021 	move	s0,a0
10001484:	afbf0014 	sw	ra,20(sp)
10001488:	0c00007b 	jal	100001ec <_interrupt_set>
1000148c:	00002021 	move	a0,zero
10001490:	3c032000 	lui	v1,0x2000
10001494:	8c650010 	lw	a1,16(v1)
10001498:	8fbf0014 	lw	ra,20(sp)
1000149c:	02058025 	or	s0,s0,a1
100014a0:	ac700010 	sw	s0,16(v1)
100014a4:	00402021 	move	a0,v0
100014a8:	8fb00010 	lw	s0,16(sp)
100014ac:	0800007b 	j	100001ec <_interrupt_set>
100014b0:	27bd0018 	addiu	sp,sp,24

100014b4 <kitoa.part.0>:
100014b4:	24020010 	li	v0,16
100014b8:	10a20023 	beq	a1,v0,10001548 <kitoa.part.0+0x94>
100014bc:	00803021 	move	a2,a0
100014c0:	04800034 	bltz	a0,10001594 <kitoa.part.0+0xe0>
100014c4:	00000000 	nop
100014c8:	10800019 	beqz	a0,10001530 <kitoa.part.0+0x7c>
100014cc:	00004021 	move	t0,zero
100014d0:	3c021000 	lui	v0,0x1000
100014d4:	3c071000 	lui	a3,0x1000
100014d8:	2403001e 	li	v1,30
100014dc:	244252f8 	addiu	v0,v0,21240
100014e0:	0800053c 	j	100014f0 <kitoa.part.0+0x3c>
100014e4:	24e745cc 	addiu	a3,a3,17868
100014e8:	1060000b 	beqz	v1,10001518 <kitoa.part.0+0x64>
100014ec:	00000000 	nop
100014f0:	00c5001a 	div	zero,a2,a1
100014f4:	00432021 	addu	a0,v0,v1
100014f8:	2463ffff 	addiu	v1,v1,-1
100014fc:	00003010 	mfhi	a2
10001500:	00e63021 	addu	a2,a3,a2
10001504:	90c90000 	lbu	t1,0(a2)
10001508:	00005012 	mflo	t2
1000150c:	00003012 	mflo	a2
10001510:	1540fff5 	bnez	t2,100014e8 <kitoa.part.0+0x34>
10001514:	a0890000 	sb	t1,0(a0)
10001518:	11000008 	beqz	t0,1000153c <kitoa.part.0+0x88>
1000151c:	00432021 	addu	a0,v0,v1
10001520:	2405002d 	li	a1,45
10001524:	a0850000 	sb	a1,0(a0)
10001528:	03e00008 	jr	ra
1000152c:	00431021 	addu	v0,v0,v1
10001530:	3c021000 	lui	v0,0x1000
10001534:	2403001e 	li	v1,30
10001538:	244252f8 	addiu	v0,v0,21240
1000153c:	24630001 	addiu	v1,v1,1
10001540:	03e00008 	jr	ra
10001544:	00431021 	addu	v0,v0,v1
10001548:	10800018 	beqz	a0,100015ac <kitoa.part.0+0xf8>
1000154c:	3c071000 	lui	a3,0x1000
10001550:	3c021000 	lui	v0,0x1000
10001554:	2403001e 	li	v1,30
10001558:	244252f8 	addiu	v0,v0,21240
1000155c:	0800055b 	j	1000156c <kitoa.part.0+0xb8>
10001560:	24e745cc 	addiu	a3,a3,17868
10001564:	1060000e 	beqz	v1,100015a0 <kitoa.part.0+0xec>
10001568:	00000000 	nop
1000156c:	30c4000f 	andi	a0,a2,0xf
10001570:	00e42021 	addu	a0,a3,a0
10001574:	90850000 	lbu	a1,0(a0)
10001578:	00063102 	srl	a2,a2,0x4
1000157c:	00432021 	addu	a0,v0,v1
10001580:	a0850000 	sb	a1,0(a0)
10001584:	14c0fff7 	bnez	a2,10001564 <kitoa.part.0+0xb0>
10001588:	2463ffff 	addiu	v1,v1,-1
1000158c:	08000550 	j	10001540 <kitoa.part.0+0x8c>
10001590:	24630001 	addiu	v1,v1,1
10001594:	00043023 	negu	a2,a0
10001598:	08000534 	j	100014d0 <kitoa.part.0+0x1c>
1000159c:	24080001 	li	t0,1
100015a0:	24030001 	li	v1,1
100015a4:	03e00008 	jr	ra
100015a8:	00431021 	addu	v0,v0,v1
100015ac:	3c021000 	lui	v0,0x1000
100015b0:	2403001f 	li	v1,31
100015b4:	0800054a 	j	10001528 <kitoa.part.0+0x74>
100015b8:	244252f8 	addiu	v0,v0,21240

100015bc <kprintf>:
100015bc:	27bdffc0 	addiu	sp,sp,-64
100015c0:	27a20044 	addiu	v0,sp,68
100015c4:	afb60034 	sw	s6,52(sp)
100015c8:	afb50030 	sw	s5,48(sp)
100015cc:	afb4002c 	sw	s4,44(sp)
100015d0:	afb30028 	sw	s3,40(sp)
100015d4:	afb20024 	sw	s2,36(sp)
100015d8:	afb10020 	sw	s1,32(sp)
100015dc:	afb0001c 	sw	s0,28(sp)
100015e0:	afbf003c 	sw	ra,60(sp)
100015e4:	afb70038 	sw	s7,56(sp)
100015e8:	afa50044 	sw	a1,68(sp)
100015ec:	afa60048 	sw	a2,72(sp)
100015f0:	afa7004c 	sw	a3,76(sp)
100015f4:	00808021 	move	s0,a0
100015f8:	afa20010 	sw	v0,16(sp)
100015fc:	0040a821 	move	s5,v0
10001600:	24110025 	li	s1,37
10001604:	24120064 	li	s2,100
10001608:	3c141000 	lui	s4,0x1000
1000160c:	24130073 	li	s3,115
10001610:	3c161000 	lui	s6,0x1000
10001614:	82040000 	lb	a0,0(s0)
10001618:	00000000 	nop
1000161c:	10800009 	beqz	a0,10001644 <kprintf+0x88>
10001620:	00000000 	nop
10001624:	10910013 	beq	a0,s1,10001674 <kprintf+0xb8>
10001628:	00000000 	nop
1000162c:	0c0003fb 	jal	10000fec <putchar>
10001630:	26100001 	addiu	s0,s0,1
10001634:	82040000 	lb	a0,0(s0)
10001638:	00000000 	nop
1000163c:	1480fff9 	bnez	a0,10001624 <kprintf+0x68>
10001640:	00000000 	nop
10001644:	8fbf003c 	lw	ra,60(sp)
10001648:	00001021 	move	v0,zero
1000164c:	8fb70038 	lw	s7,56(sp)
10001650:	8fb60034 	lw	s6,52(sp)
10001654:	8fb50030 	lw	s5,48(sp)
10001658:	8fb4002c 	lw	s4,44(sp)
1000165c:	8fb30028 	lw	s3,40(sp)
10001660:	8fb20024 	lw	s2,36(sp)
10001664:	8fb10020 	lw	s1,32(sp)
10001668:	8fb0001c 	lw	s0,28(sp)
1000166c:	03e00008 	jr	ra
10001670:	27bd0040 	addiu	sp,sp,64
10001674:	82020001 	lb	v0,1(s0)
10001678:	00000000 	nop
1000167c:	10520030 	beq	v0,s2,10001740 <kprintf+0x184>
10001680:	28430065 	slti	v1,v0,101
10001684:	10600009 	beqz	v1,100016ac <kprintf+0xf0>
10001688:	00000000 	nop
1000168c:	10510043 	beq	v0,s1,1000179c <kprintf+0x1e0>
10001690:	24030063 	li	v1,99
10001694:	1043003b 	beq	v0,v1,10001784 <kprintf+0x1c8>
10001698:	00000000 	nop
1000169c:	0c0003fb 	jal	10000fec <putchar>
100016a0:	2404003f 	li	a0,63
100016a4:	08000585 	j	10001614 <kprintf+0x58>
100016a8:	26100002 	addiu	s0,s0,2
100016ac:	10530014 	beq	v0,s3,10001700 <kprintf+0x144>
100016b0:	24030078 	li	v1,120
100016b4:	1443fff9 	bne	v0,v1,1000169c <kprintf+0xe0>
100016b8:	00000000 	nop
100016bc:	8ea40000 	lw	a0,0(s5)
100016c0:	00000000 	nop
100016c4:	14800039 	bnez	a0,100017ac <kprintf+0x1f0>
100016c8:	26b50004 	addiu	s5,s5,4
100016cc:	269745e0 	addiu	s7,s4,17888
100016d0:	82e40000 	lb	a0,0(s7)
100016d4:	00000000 	nop
100016d8:	1080fff2 	beqz	a0,100016a4 <kprintf+0xe8>
100016dc:	00000000 	nop
100016e0:	0c0003fb 	jal	10000fec <putchar>
100016e4:	26f70001 	addiu	s7,s7,1
100016e8:	82e40000 	lb	a0,0(s7)
100016ec:	00000000 	nop
100016f0:	1480fffb 	bnez	a0,100016e0 <kprintf+0x124>
100016f4:	00000000 	nop
100016f8:	08000585 	j	10001614 <kprintf+0x58>
100016fc:	26100002 	addiu	s0,s0,2
10001700:	8eb70000 	lw	s7,0(s5)
10001704:	00000000 	nop
10001708:	12e00030 	beqz	s7,100017cc <kprintf+0x210>
1000170c:	26b50004 	addiu	s5,s5,4
10001710:	82e40000 	lb	a0,0(s7)
10001714:	00000000 	nop
10001718:	1080ffe2 	beqz	a0,100016a4 <kprintf+0xe8>
1000171c:	26f70001 	addiu	s7,s7,1
10001720:	0c0003fb 	jal	10000fec <putchar>
10001724:	26f70001 	addiu	s7,s7,1
10001728:	82e4ffff 	lb	a0,-1(s7)
1000172c:	00000000 	nop
10001730:	1480fffb 	bnez	a0,10001720 <kprintf+0x164>
10001734:	00000000 	nop
10001738:	08000585 	j	10001614 <kprintf+0x58>
1000173c:	26100002 	addiu	s0,s0,2
10001740:	8ea40000 	lw	a0,0(s5)
10001744:	00000000 	nop
10001748:	1480001c 	bnez	a0,100017bc <kprintf+0x200>
1000174c:	26b50004 	addiu	s5,s5,4
10001750:	269745e0 	addiu	s7,s4,17888
10001754:	82e40000 	lb	a0,0(s7)
10001758:	00000000 	nop
1000175c:	1080ffd1 	beqz	a0,100016a4 <kprintf+0xe8>
10001760:	00000000 	nop
10001764:	0c0003fb 	jal	10000fec <putchar>
10001768:	26f70001 	addiu	s7,s7,1
1000176c:	82e40000 	lb	a0,0(s7)
10001770:	00000000 	nop
10001774:	1480fffb 	bnez	a0,10001764 <kprintf+0x1a8>
10001778:	00000000 	nop
1000177c:	08000585 	j	10001614 <kprintf+0x58>
10001780:	26100002 	addiu	s0,s0,2
10001784:	82a40003 	lb	a0,3(s5)
10001788:	26100002 	addiu	s0,s0,2
1000178c:	0c0003fb 	jal	10000fec <putchar>
10001790:	26b50004 	addiu	s5,s5,4
10001794:	08000585 	j	10001614 <kprintf+0x58>
10001798:	00000000 	nop
1000179c:	0c0003fb 	jal	10000fec <putchar>
100017a0:	24040025 	li	a0,37
100017a4:	08000585 	j	10001614 <kprintf+0x58>
100017a8:	26100002 	addiu	s0,s0,2
100017ac:	0c00052d 	jal	100014b4 <kitoa.part.0>
100017b0:	24050010 	li	a1,16
100017b4:	080005b4 	j	100016d0 <kprintf+0x114>
100017b8:	0040b821 	move	s7,v0
100017bc:	0c00052d 	jal	100014b4 <kitoa.part.0>
100017c0:	2405000a 	li	a1,10
100017c4:	080005d5 	j	10001754 <kprintf+0x198>
100017c8:	0040b821 	move	s7,v0
100017cc:	080005c4 	j	10001710 <kprintf+0x154>
100017d0:	26d745e4 	addiu	s7,s6,17892

100017d4 <printchar>:
100017d4:	10800009 	beqz	a0,100017fc <printchar+0x28>
100017d8:	00000000 	nop
100017dc:	8c820000 	lw	v0,0(a0)
100017e0:	00000000 	nop
100017e4:	a0450000 	sb	a1,0(v0)
100017e8:	8c820000 	lw	v0,0(a0)
100017ec:	00000000 	nop
100017f0:	24420001 	addiu	v0,v0,1
100017f4:	03e00008 	jr	ra
100017f8:	ac820000 	sw	v0,0(a0)
100017fc:	14a00003 	bnez	a1,1000180c <printchar+0x38>
10001800:	00000000 	nop
10001804:	03e00008 	jr	ra
10001808:	00000000 	nop
1000180c:	080003fb 	j	10000fec <putchar>
10001810:	00a02021 	move	a0,a1

10001814 <vsprintf>:
10001814:	27bdffb8 	addiu	sp,sp,-72
10001818:	afbe0040 	sw	s8,64(sp)
1000181c:	afb10024 	sw	s1,36(sp)
10001820:	afb00020 	sw	s0,32(sp)
10001824:	afbf0044 	sw	ra,68(sp)
10001828:	afb7003c 	sw	s7,60(sp)
1000182c:	afb60038 	sw	s6,56(sp)
10001830:	afb50034 	sw	s5,52(sp)
10001834:	afb40030 	sw	s4,48(sp)
10001838:	afb3002c 	sw	s3,44(sp)
1000183c:	afb20028 	sw	s2,40(sp)
10001840:	00a08821 	move	s1,a1
10001844:	80a50000 	lb	a1,0(a1)
10001848:	00808021 	move	s0,a0
1000184c:	10a00035 	beqz	a1,10001924 <vsprintf+0x110>
10001850:	00c0f021 	move	s8,a2
10001854:	3c171000 	lui	s7,0x1000
10001858:	26f745cc 	addiu	s7,s7,17868
1000185c:	24020025 	li	v0,37
10001860:	14a2002a 	bne	a1,v0,1000190c <vsprintf+0xf8>
10001864:	24030030 	li	v1,48
10001868:	82220001 	lb	v0,1(s1)
1000186c:	00000000 	nop
10001870:	104300a0 	beq	v0,v1,10001af4 <vsprintf+0x2e0>
10001874:	24140030 	li	s4,48
10001878:	26310001 	addiu	s1,s1,1
1000187c:	24140020 	li	s4,32
10001880:	2443ffd0 	addiu	v1,v0,-48
10001884:	306300ff 	andi	v1,v1,0xff
10001888:	2c63000a 	sltiu	v1,v1,10
1000188c:	10600094 	beqz	v1,10001ae0 <vsprintf+0x2cc>
10001890:	2403006c 	li	v1,108
10001894:	00009821 	move	s3,zero
10001898:	00131840 	sll	v1,s3,0x1
1000189c:	001398c0 	sll	s3,s3,0x3
100018a0:	00739821 	addu	s3,v1,s3
100018a4:	26310001 	addiu	s1,s1,1
100018a8:	02629821 	addu	s3,s3,v0
100018ac:	82220000 	lb	v0,0(s1)
100018b0:	00000000 	nop
100018b4:	2443ffd0 	addiu	v1,v0,-48
100018b8:	306300ff 	andi	v1,v1,0xff
100018bc:	2c63000a 	sltiu	v1,v1,10
100018c0:	1460fff5 	bnez	v1,10001898 <vsprintf+0x84>
100018c4:	2673ffd0 	addiu	s3,s3,-48
100018c8:	2403006c 	li	v1,108
100018cc:	10430086 	beq	v0,v1,10001ae8 <vsprintf+0x2d4>
100018d0:	00000000 	nop
100018d4:	2442ffa8 	addiu	v0,v0,-88
100018d8:	304200ff 	andi	v0,v0,0xff
100018dc:	2c430021 	sltiu	v1,v0,33
100018e0:	1060000c 	beqz	v1,10001914 <vsprintf+0x100>
100018e4:	3c031000 	lui	v1,0x1000
100018e8:	00021080 	sll	v0,v0,0x2
100018ec:	24634650 	addiu	v1,v1,18000
100018f0:	00621021 	addu	v0,v1,v0
100018f4:	8c420000 	lw	v0,0(v0)
100018f8:	00000000 	nop
100018fc:	00400008 	jr	v0
10001900:	00000000 	nop
10001904:	83c50003 	lb	a1,3(s8)
10001908:	27de0004 	addiu	s8,s8,4
1000190c:	0c0005f5 	jal	100017d4 <printchar>
10001910:	02002021 	move	a0,s0
10001914:	82250001 	lb	a1,1(s1)
10001918:	00000000 	nop
1000191c:	14a0ffcf 	bnez	a1,1000185c <vsprintf+0x48>
10001920:	26310001 	addiu	s1,s1,1
10001924:	02002021 	move	a0,s0
10001928:	0c0005f5 	jal	100017d4 <printchar>
1000192c:	00002821 	move	a1,zero
10001930:	8fbf0044 	lw	ra,68(sp)
10001934:	00001021 	move	v0,zero
10001938:	8fbe0040 	lw	s8,64(sp)
1000193c:	8fb7003c 	lw	s7,60(sp)
10001940:	8fb60038 	lw	s6,56(sp)
10001944:	8fb50034 	lw	s5,52(sp)
10001948:	8fb40030 	lw	s4,48(sp)
1000194c:	8fb3002c 	lw	s3,44(sp)
10001950:	8fb20028 	lw	s2,40(sp)
10001954:	8fb10024 	lw	s1,36(sp)
10001958:	8fb00020 	lw	s0,32(sp)
1000195c:	03e00008 	jr	ra
10001960:	27bd0048 	addiu	sp,sp,72
10001964:	2403000a 	li	v1,10
10001968:	8fd20000 	lw	s2,0(s8)
1000196c:	00000000 	nop
10001970:	1640004b 	bnez	s2,10001aa0 <vsprintf+0x28c>
10001974:	27d50004 	addiu	s5,s8,4
10001978:	24020030 	li	v0,48
1000197c:	a3a20010 	sb	v0,16(sp)
10001980:	02a0f021 	move	s8,s5
10001984:	00009021 	move	s2,zero
10001988:	24020001 	li	v0,1
1000198c:	27b60010 	addiu	s6,sp,16
10001990:	02629823 	subu	s3,s3,v0
10001994:	1a600008 	blez	s3,100019b8 <vsprintf+0x1a4>
10001998:	2673ffff 	addiu	s3,s3,-1
1000199c:	2415ffff 	li	s5,-1
100019a0:	2673ffff 	addiu	s3,s3,-1
100019a4:	02002021 	move	a0,s0
100019a8:	0c0005f5 	jal	100017d4 <printchar>
100019ac:	02802821 	move	a1,s4
100019b0:	1675fffc 	bne	s3,s5,100019a4 <vsprintf+0x190>
100019b4:	2673ffff 	addiu	s3,s3,-1
100019b8:	24130001 	li	s3,1
100019bc:	02d29021 	addu	s2,s6,s2
100019c0:	02769823 	subu	s3,s3,s6
100019c4:	82450000 	lb	a1,0(s2)
100019c8:	02002021 	move	a0,s0
100019cc:	0c0005f5 	jal	100017d4 <printchar>
100019d0:	2652ffff 	addiu	s2,s2,-1
100019d4:	02721021 	addu	v0,s3,s2
100019d8:	1c40fffa 	bgtz	v0,100019c4 <vsprintf+0x1b0>
100019dc:	00000000 	nop
100019e0:	82250001 	lb	a1,1(s1)
100019e4:	00000000 	nop
100019e8:	14a0ff9c 	bnez	a1,1000185c <vsprintf+0x48>
100019ec:	26310001 	addiu	s1,s1,1
100019f0:	0800064a 	j	10001928 <vsprintf+0x114>
100019f4:	02002021 	move	a0,s0
100019f8:	8fd20000 	lw	s2,0(s8)
100019fc:	00000000 	nop
10001a00:	12400047 	beqz	s2,10001b20 <vsprintf+0x30c>
10001a04:	27de0004 	addiu	s8,s8,4
10001a08:	82450000 	lb	a1,0(s2)
10001a0c:	00000000 	nop
10001a10:	10a0000d 	beqz	a1,10001a48 <vsprintf+0x234>
10001a14:	00000000 	nop
10001a18:	1260ffbe 	beqz	s3,10001914 <vsprintf+0x100>
10001a1c:	26520001 	addiu	s2,s2,1
10001a20:	0800068c 	j	10001a30 <vsprintf+0x21c>
10001a24:	00000000 	nop
10001a28:	1260ffba 	beqz	s3,10001914 <vsprintf+0x100>
10001a2c:	26520001 	addiu	s2,s2,1
10001a30:	0c0005f5 	jal	100017d4 <printchar>
10001a34:	02002021 	move	a0,s0
10001a38:	82450000 	lb	a1,0(s2)
10001a3c:	00000000 	nop
10001a40:	14a0fff9 	bnez	a1,10001a28 <vsprintf+0x214>
10001a44:	2673ffff 	addiu	s3,s3,-1
10001a48:	1a60ffb2 	blez	s3,10001914 <vsprintf+0x100>
10001a4c:	2673ffff 	addiu	s3,s3,-1
10001a50:	2412ffff 	li	s2,-1
10001a54:	2673ffff 	addiu	s3,s3,-1
10001a58:	02002021 	move	a0,s0
10001a5c:	0c0005f5 	jal	100017d4 <printchar>
10001a60:	02802821 	move	a1,s4
10001a64:	1672fffc 	bne	s3,s2,10001a58 <vsprintf+0x244>
10001a68:	2673ffff 	addiu	s3,s3,-1
10001a6c:	26730001 	addiu	s3,s3,1
10001a70:	82250001 	lb	a1,1(s1)
10001a74:	00000000 	nop
10001a78:	14a0ff78 	bnez	a1,1000185c <vsprintf+0x48>
10001a7c:	26310001 	addiu	s1,s1,1
10001a80:	0800064a 	j	10001928 <vsprintf+0x114>
10001a84:	02002021 	move	a0,s0
10001a88:	8fd20000 	lw	s2,0(s8)
10001a8c:	00000000 	nop
10001a90:	0640001b 	bltz	s2,10001b00 <vsprintf+0x2ec>
10001a94:	27d50004 	addiu	s5,s8,4
10001a98:	1240ffb7 	beqz	s2,10001978 <vsprintf+0x164>
10001a9c:	2403000a 	li	v1,10
10001aa0:	02a0f021 	move	s8,s5
10001aa4:	00001021 	move	v0,zero
10001aa8:	27b60010 	addiu	s6,sp,16
10001aac:	0243001b 	divu	zero,s2,v1
10001ab0:	02c22821 	addu	a1,s6,v0
10001ab4:	24420001 	addiu	v0,v0,1
10001ab8:	00002010 	mfhi	a0
10001abc:	02e42021 	addu	a0,s7,a0
10001ac0:	90840000 	lbu	a0,0(a0)
10001ac4:	00009012 	mflo	s2
10001ac8:	1640fff8 	bnez	s2,10001aac <vsprintf+0x298>
10001acc:	a0a40000 	sb	a0,0(a1)
10001ad0:	08000664 	j	10001990 <vsprintf+0x17c>
10001ad4:	2452ffff 	addiu	s2,v0,-1
10001ad8:	0800065a 	j	10001968 <vsprintf+0x154>
10001adc:	24030010 	li	v1,16
10001ae0:	1443ff7c 	bne	v0,v1,100018d4 <vsprintf+0xc0>
10001ae4:	2413ffff 	li	s3,-1
10001ae8:	82220001 	lb	v0,1(s1)
10001aec:	08000635 	j	100018d4 <vsprintf+0xc0>
10001af0:	26310001 	addiu	s1,s1,1
10001af4:	82220002 	lb	v0,2(s1)
10001af8:	08000620 	j	10001880 <vsprintf+0x6c>
10001afc:	26310002 	addiu	s1,s1,2
10001b00:	02002021 	move	a0,s0
10001b04:	0c0005f5 	jal	100017d4 <printchar>
10001b08:	2405002d 	li	a1,45
10001b0c:	00129023 	negu	s2,s2
10001b10:	2673ffff 	addiu	s3,s3,-1
10001b14:	02a0f021 	move	s8,s5
10001b18:	080006a9 	j	10001aa4 <vsprintf+0x290>
10001b1c:	2403000a 	li	v1,10
10001b20:	3c021000 	lui	v0,0x1000
10001b24:	08000682 	j	10001a08 <vsprintf+0x1f4>
10001b28:	245245ec 	addiu	s2,v0,17900

10001b2c <strncpy>:
10001b2c:	18c0000f 	blez	a2,10001b6c <strncpy+0x40>
10001b30:	00801021 	move	v0,a0
10001b34:	80a40000 	lb	a0,0(a1)
10001b38:	24430001 	addiu	v1,v0,1
10001b3c:	10800018 	beqz	a0,10001ba0 <strncpy+0x74>
10001b40:	a0440000 	sb	a0,0(v0)
10001b44:	080006d8 	j	10001b60 <strncpy+0x34>
10001b48:	00002021 	move	a0,zero
10001b4c:	80e70000 	lb	a3,0(a3)
10001b50:	00000000 	nop
10001b54:	a0670000 	sb	a3,0(v1)
10001b58:	10e00006 	beqz	a3,10001b74 <strncpy+0x48>
10001b5c:	24630001 	addiu	v1,v1,1
10001b60:	24840001 	addiu	a0,a0,1
10001b64:	1486fff9 	bne	a0,a2,10001b4c <strncpy+0x20>
10001b68:	00a43821 	addu	a3,a1,a0
10001b6c:	03e00008 	jr	ra
10001b70:	00000000 	nop
10001b74:	24840001 	addiu	a0,a0,1
10001b78:	0086282a 	slt	a1,a0,a2
10001b7c:	10a0fffb 	beqz	a1,10001b6c <strncpy+0x40>
10001b80:	00663021 	addu	a2,v1,a2
10001b84:	00c42023 	subu	a0,a2,a0
10001b88:	a0600000 	sb	zero,0(v1)
10001b8c:	24630001 	addiu	v1,v1,1
10001b90:	1464fffd 	bne	v1,a0,10001b88 <strncpy+0x5c>
10001b94:	00000000 	nop
10001b98:	03e00008 	jr	ra
10001b9c:	00000000 	nop
10001ba0:	080006de 	j	10001b78 <strncpy+0x4c>
10001ba4:	24040001 	li	a0,1

10001ba8 <memcpy>:
10001ba8:	10c00008 	beqz	a2,10001bcc <memcpy+0x24>
10001bac:	00801021 	move	v0,a0
10001bb0:	00801821 	move	v1,a0
10001bb4:	80a40000 	lb	a0,0(a1)
10001bb8:	24c6ffff 	addiu	a2,a2,-1
10001bbc:	a0640000 	sb	a0,0(v1)
10001bc0:	24a50001 	addiu	a1,a1,1
10001bc4:	14c0fffb 	bnez	a2,10001bb4 <memcpy+0xc>
10001bc8:	24630001 	addiu	v1,v1,1
10001bcc:	03e00008 	jr	ra
10001bd0:	00000000 	nop

10001bd4 <memset>:
10001bd4:	10c00007 	beqz	a2,10001bf4 <memset+0x20>
10001bd8:	00801021 	move	v0,a0
10001bdc:	30a500ff 	andi	a1,a1,0xff
10001be0:	00801821 	move	v1,a0
10001be4:	24c6ffff 	addiu	a2,a2,-1
10001be8:	a0650000 	sb	a1,0(v1)
10001bec:	14c0fffd 	bnez	a2,10001be4 <memset+0x10>
10001bf0:	24630001 	addiu	v1,v1,1
10001bf4:	03e00008 	jr	ra
10001bf8:	00000000 	nop

10001bfc <printf>:
10001bfc:	27bdffe0 	addiu	sp,sp,-32
10001c00:	27a20024 	addiu	v0,sp,36
10001c04:	00801821 	move	v1,a0
10001c08:	afa50024 	sw	a1,36(sp)
10001c0c:	afa60028 	sw	a2,40(sp)
10001c10:	00002021 	move	a0,zero
10001c14:	00602821 	move	a1,v1
10001c18:	00403021 	move	a2,v0
10001c1c:	afbf001c 	sw	ra,28(sp)
10001c20:	afa7002c 	sw	a3,44(sp)
10001c24:	0c000605 	jal	10001814 <vsprintf>
10001c28:	afa20010 	sw	v0,16(sp)
10001c2c:	8fbf001c 	lw	ra,28(sp)
10001c30:	00000000 	nop
10001c34:	03e00008 	jr	ra
10001c38:	27bd0020 	addiu	sp,sp,32

10001c3c <malloc>:
10001c3c:	0800084a 	j	10002128 <hf_malloc>
10001c40:	00000000 	nop

10001c44 <__udivmoddi4>:
10001c44:	27bdfff8 	addiu	sp,sp,-8
10001c48:	00c71025 	or	v0,a2,a3
10001c4c:	afb10004 	sw	s1,4(sp)
10001c50:	afb00000 	sw	s0,0(sp)
10001c54:	8fb80018 	lw	t8,24(sp)
10001c58:	10400035 	beqz	v0,10001d30 <__udivmoddi4+0xec>
10001c5c:	24090001 	li	t1,1
10001c60:	04c0000e 	bltz	a2,10001c9c <__udivmoddi4+0x58>
10001c64:	00004021 	move	t0,zero
10001c68:	00075fc2 	srl	t3,a3,0x1f
10001c6c:	00063040 	sll	a2,a2,0x1
10001c70:	000957c2 	srl	t2,t1,0x1f
10001c74:	00081840 	sll	v1,t0,0x1
10001c78:	00091040 	sll	v0,t1,0x1
10001c7c:	01663025 	or	a2,t3,a2
10001c80:	01434025 	or	t0,t2,v1
10001c84:	00073840 	sll	a3,a3,0x1
10001c88:	04c1fff7 	bgez	a2,10001c68 <__udivmoddi4+0x24>
10001c8c:	00404821 	move	t1,v0
10001c90:	00481025 	or	v0,v0,t0
10001c94:	1040002e 	beqz	v0,10001d50 <__udivmoddi4+0x10c>
10001c98:	00001821 	move	v1,zero
10001c9c:	00001821 	move	v1,zero
10001ca0:	00001021 	move	v0,zero
10001ca4:	0086782b 	sltu	t7,a0,a2
10001ca8:	00087042 	srl	t6,t0,0x1
10001cac:	00086fc0 	sll	t5,t0,0x1f
10001cb0:	00095042 	srl	t2,t1,0x1
10001cb4:	000667c0 	sll	t4,a2,0x1f
10001cb8:	15e0000f 	bnez	t7,10001cf8 <__udivmoddi4+0xb4>
10001cbc:	00075842 	srl	t3,a3,0x1
10001cc0:	00a77823 	subu	t7,a1,a3
10001cc4:	00694821 	addu	t1,v1,t1
10001cc8:	00484021 	addu	t0,v0,t0
10001ccc:	0123882b 	sltu	s1,t1,v1
10001cd0:	00afc82b 	sltu	t9,a1,t7
10001cd4:	00868023 	subu	s0,a0,a2
10001cd8:	14c40003 	bne	a2,a0,10001ce8 <__udivmoddi4+0xa4>
10001cdc:	00a7382b 	sltu	a3,a1,a3
10001ce0:	14e00005 	bnez	a3,10001cf8 <__udivmoddi4+0xb4>
10001ce4:	00000000 	nop
10001ce8:	02281021 	addu	v0,s1,t0
10001cec:	02192023 	subu	a0,s0,t9
10001cf0:	01e02821 	move	a1,t7
10001cf4:	01201821 	move	v1,t1
10001cf8:	01aa4825 	or	t1,t5,t2
10001cfc:	01c95025 	or	t2,t6,t1
10001d00:	01c04021 	move	t0,t6
10001d04:	00063042 	srl	a2,a2,0x1
10001d08:	1540ffe6 	bnez	t2,10001ca4 <__udivmoddi4+0x60>
10001d0c:	018b3825 	or	a3,t4,t3
10001d10:	13000003 	beqz	t8,10001d20 <__udivmoddi4+0xdc>
10001d14:	00000000 	nop
10001d18:	af040000 	sw	a0,0(t8)
10001d1c:	af050004 	sw	a1,4(t8)
10001d20:	8fb10004 	lw	s1,4(sp)
10001d24:	8fb00000 	lw	s0,0(sp)
10001d28:	03e00008 	jr	ra
10001d2c:	27bd0008 	addiu	sp,sp,8
10001d30:	24030001 	li	v1,1
10001d34:	0062001b 	divu	zero,v1,v0
10001d38:	8fb10004 	lw	s1,4(sp)
10001d3c:	00001021 	move	v0,zero
10001d40:	8fb00000 	lw	s0,0(sp)
10001d44:	00001812 	mflo	v1
10001d48:	03e00008 	jr	ra
10001d4c:	27bd0008 	addiu	sp,sp,8
10001d50:	08000744 	j	10001d10 <__udivmoddi4+0xcc>
10001d54:	00001021 	move	v0,zero

10001d58 <__udivdi3>:
10001d58:	27bdffe0 	addiu	sp,sp,-32
10001d5c:	afbf001c 	sw	ra,28(sp)
10001d60:	0c000711 	jal	10001c44 <__udivmoddi4>
10001d64:	afa00010 	sw	zero,16(sp)
10001d68:	8fbf001c 	lw	ra,28(sp)
10001d6c:	00000000 	nop
10001d70:	03e00008 	jr	ra
10001d74:	27bd0020 	addiu	sp,sp,32

10001d78 <idletask>:
10001d78:	3c021008 	lui	v0,0x1008
10001d7c:	8c4506e8 	lw	a1,1768(v0)
10001d80:	3c041000 	lui	a0,0x1000
10001d84:	27bdffe8 	addiu	sp,sp,-24
10001d88:	afbf0014 	sw	ra,20(sp)
10001d8c:	0c00056f 	jal	100015bc <kprintf>
10001d90:	248446d4 	addiu	a0,a0,18132
10001d94:	3c041000 	lui	a0,0x1000
10001d98:	0c00056f 	jal	100015bc <kprintf>
10001d9c:	248446f4 	addiu	a0,a0,18164
10001da0:	0c000da0 	jal	10003680 <hf_schedlock>
10001da4:	00002021 	move	a0,zero
10001da8:	0c0004ab 	jal	100012ac <_cpu_idle>
10001dac:	00000000 	nop
10001db0:	0c0004ab 	jal	100012ac <_cpu_idle>
10001db4:	00000000 	nop
10001db8:	0800076a 	j	10001da8 <idletask+0x30>
10001dbc:	00000000 	nop

10001dc0 <main>:
10001dc0:	27bdffd0 	addiu	sp,sp,-48
10001dc4:	afbf002c 	sw	ra,44(sp)
10001dc8:	afb40028 	sw	s4,40(sp)
10001dcc:	afb30024 	sw	s3,36(sp)
10001dd0:	afb20020 	sw	s2,32(sp)
10001dd4:	afb1001c 	sw	s1,28(sp)
10001dd8:	0c000449 	jal	10001124 <_hardware_init>
10001ddc:	afb00018 	sw	s0,24(sp)
10001de0:	0c000da0 	jal	10003680 <hf_schedlock>
10001de4:	24040001 	li	a0,1
10001de8:	0c00007b 	jal	100001ec <_interrupt_set>
10001dec:	00002021 	move	a0,zero
10001df0:	3c041000 	lui	a0,0x1000
10001df4:	0c00056f 	jal	100015bc <kprintf>
10001df8:	24844710 	addiu	a0,a0,18192
10001dfc:	3c021000 	lui	v0,0x1000
10001e00:	3c03baad 	lui	v1,0xbaad
10001e04:	8c445250 	lw	a0,21072(v0)
10001e08:	3463d00d 	ori	v1,v1,0xd00d
10001e0c:	1083000c 	beq	a0,v1,10001e40 <main+0x80>
10001e10:	3c041000 	lui	a0,0x1000
10001e14:	0c000d36 	jal	100034d8 <panic>
10001e18:	24040001 	li	a0,1
10001e1c:	8fbf002c 	lw	ra,44(sp)
10001e20:	00001021 	move	v0,zero
10001e24:	8fb40028 	lw	s4,40(sp)
10001e28:	8fb30024 	lw	s3,36(sp)
10001e2c:	8fb20020 	lw	s2,32(sp)
10001e30:	8fb1001c 	lw	s1,28(sp)
10001e34:	8fb00018 	lw	s0,24(sp)
10001e38:	03e00008 	jr	ra
10001e3c:	27bd0030 	addiu	sp,sp,48
10001e40:	24844724 	addiu	a0,a0,18212
10001e44:	0c00056f 	jal	100015bc <kprintf>
10001e48:	ac405250 	sw	zero,21072(v0)
10001e4c:	3c061000 	lui	a2,0x1000
10001e50:	3c071000 	lui	a3,0x1000
10001e54:	3c051000 	lui	a1,0x1000
10001e58:	3c041000 	lui	a0,0x1000
10001e5c:	3c021000 	lui	v0,0x1000
10001e60:	24c64790 	addiu	a2,a2,18320
10001e64:	24e74798 	addiu	a3,a3,18328
10001e68:	24a54784 	addiu	a1,a1,18308
10001e6c:	24844764 	addiu	a0,a0,18276
10001e70:	244247a4 	addiu	v0,v0,18340
10001e74:	0c00056f 	jal	100015bc <kprintf>
10001e78:	afa20010 	sw	v0,16(sp)
10001e7c:	3c041000 	lui	a0,0x1000
10001e80:	0c00056f 	jal	100015bc <kprintf>
10001e84:	248447b0 	addiu	a0,a0,18352
10001e88:	3c041000 	lui	a0,0x1000
10001e8c:	0c00056f 	jal	100015bc <kprintf>
10001e90:	248447e8 	addiu	a0,a0,18408
10001e94:	3c041000 	lui	a0,0x1000
10001e98:	3c051000 	lui	a1,0x1000
10001e9c:	24844828 	addiu	a0,a0,18472
10001ea0:	0c00056f 	jal	100015bc <kprintf>
10001ea4:	24a5483c 	addiu	a1,a1,18492
10001ea8:	3c041000 	lui	a0,0x1000
10001eac:	24844848 	addiu	a0,a0,18504
10001eb0:	0c00056f 	jal	100015bc <kprintf>
10001eb4:	240561a8 	li	a1,25000
10001eb8:	3c041000 	lui	a0,0x1000
10001ebc:	24844860 	addiu	a0,a0,18528
10001ec0:	0c00056f 	jal	100015bc <kprintf>
10001ec4:	240528f0 	li	a1,10480
10001ec8:	3c041000 	lui	a0,0x1000
10001ecc:	3c050007 	lui	a1,0x7
10001ed0:	24844878 	addiu	a0,a0,18552
10001ed4:	0c00056f 	jal	100015bc <kprintf>
10001ed8:	34a5a120 	ori	a1,a1,0xa120
10001edc:	3c041000 	lui	a0,0x1000
10001ee0:	24844894 	addiu	a0,a0,18580
10001ee4:	2405001e 	li	a1,30
10001ee8:	0c00056f 	jal	100015bc <kprintf>
10001eec:	3c141000 	lui	s4,0x1000
10001ef0:	0c000457 	jal	1000115c <_vm_init>
10001ef4:	00008821 	move	s1,zero
10001ef8:	2694531c 	addiu	s4,s4,21276
10001efc:	3c101008 	lui	s0,0x1008
10001f00:	2413ffff 	li	s3,-1
10001f04:	2412001e 	li	s2,30
10001f08:	00111880 	sll	v1,s1,0x2
10001f0c:	00111100 	sll	v0,s1,0x4
10001f10:	00621021 	addu	v0,v1,v0
10001f14:	00511023 	subu	v0,v0,s1
10001f18:	000210c0 	sll	v0,v0,0x3
10001f1c:	02821021 	addu	v0,s4,v0
10001f20:	24440002 	addiu	a0,v0,2
10001f24:	00002821 	move	a1,zero
10001f28:	24060014 	li	a2,20
10001f2c:	a4530000 	sh	s3,0(v0)
10001f30:	0c0006f5 	jal	10001bd4 <memset>
10001f34:	ae0206dc 	sw	v0,1756(s0)
10001f38:	8e0206dc 	lw	v0,1756(s0)
10001f3c:	26310001 	addiu	s1,s1,1
10001f40:	a0400016 	sb	zero,22(v0)
10001f44:	a0400017 	sb	zero,23(v0)
10001f48:	a0400018 	sb	zero,24(v0)
10001f4c:	ac40001c 	sw	zero,28(v0)
10001f50:	ac400020 	sw	zero,32(v0)
10001f54:	ac400024 	sw	zero,36(v0)
10001f58:	ac400028 	sw	zero,40(v0)
10001f5c:	a440002c 	sh	zero,44(v0)
10001f60:	a440002e 	sh	zero,46(v0)
10001f64:	a4400030 	sh	zero,48(v0)
10001f68:	a4400032 	sh	zero,50(v0)
10001f6c:	a4400034 	sh	zero,52(v0)
10001f70:	ac400088 	sw	zero,136(v0)
10001f74:	ac40008c 	sw	zero,140(v0)
10001f78:	ac400090 	sw	zero,144(v0)
10001f7c:	1632ffe2 	bne	s1,s2,10001f08 <main+0x148>
10001f80:	ac400094 	sw	zero,148(v0)
10001f84:	3c051008 	lui	a1,0x1008
10001f88:	a4a006e4 	sh	zero,1764(a1)
10001f8c:	3c051008 	lui	a1,0x1008
10001f90:	a4a006d8 	sh	zero,1752(a1)
10001f94:	3c051008 	lui	a1,0x1008
10001f98:	a4a006f4 	sh	zero,1780(a1)
10001f9c:	3c051000 	lui	a1,0x1000
10001fa0:	3c031008 	lui	v1,0x1008
10001fa4:	24a53d14 	addiu	a1,a1,15636
10001fa8:	2462060c 	addiu	v0,v1,1548
10001fac:	ac65060c 	sw	a1,1548(v1)
10001fb0:	3c031000 	lui	v1,0x1000
10001fb4:	24633bbc 	addiu	v1,v1,15292
10001fb8:	ac430004 	sw	v1,4(v0)
10001fbc:	2404001e 	li	a0,30
10001fc0:	ac400008 	sw	zero,8(v0)
10001fc4:	ac40000c 	sw	zero,12(v0)
10001fc8:	ac400010 	sw	zero,16(v0)
10001fcc:	0c000da4 	jal	10003690 <hf_queue_create>
10001fd0:	ac400014 	sw	zero,20(v0)
10001fd4:	3c031008 	lui	v1,0x1008
10001fd8:	10400030 	beqz	v0,1000209c <main+0x2dc>
10001fdc:	ac6206ec 	sw	v0,1772(v1)
10001fe0:	0c000da4 	jal	10003690 <hf_queue_create>
10001fe4:	2404001e 	li	a0,30
10001fe8:	3c031008 	lui	v1,0x1008
10001fec:	1040002f 	beqz	v0,100020ac <main+0x2ec>
10001ff0:	ac6206f8 	sw	v0,1784(v1)
10001ff4:	0c000da4 	jal	10003690 <hf_queue_create>
10001ff8:	2404001e 	li	a0,30
10001ffc:	3c031008 	lui	v1,0x1008
10002000:	10400022 	beqz	v0,1000208c <main+0x2cc>
10002004:	ac6206f0 	sw	v0,1776(v1)
10002008:	0c000463 	jal	1000118c <_sched_init>
1000200c:	00000000 	nop
10002010:	0c000466 	jal	10001198 <_timer_init>
10002014:	00000000 	nop
10002018:	0c0004da 	jal	10001368 <_timer_reset>
1000201c:	00000000 	nop
10002020:	0c00047b 	jal	100011ec <_irq_init>
10002024:	00000000 	nop
10002028:	3c021000 	lui	v0,0x1000
1000202c:	24424dec 	addiu	v0,v0,19948
10002030:	3c041000 	lui	a0,0x1000
10002034:	00003021 	move	a2,zero
10002038:	00003821 	move	a3,zero
1000203c:	24841d78 	addiu	a0,a0,7544
10002040:	00002821 	move	a1,zero
10002044:	afa20010 	sw	v0,16(sp)
10002048:	24020400 	li	v0,1024
1000204c:	0c000fdf 	jal	10003f7c <hf_spawn>
10002050:	afa20014 	sw	v0,20(sp)
10002054:	0c00047e 	jal	100011f8 <_device_init>
10002058:	00000000 	nop
1000205c:	0c000486 	jal	10001218 <_task_init>
10002060:	00000000 	nop
10002064:	0c00038c 	jal	10000e30 <app_main>
10002068:	00000000 	nop
1000206c:	8e0406dc 	lw	a0,1756(s0)
10002070:	24050001 	li	a1,1
10002074:	0c00009d 	jal	10000274 <_context_restore>
10002078:	24840038 	addiu	a0,a0,56
1000207c:	0c000d36 	jal	100034d8 <panic>
10002080:	00002021 	move	a0,zero
10002084:	08000787 	j	10001e1c <main+0x5c>
10002088:	00000000 	nop
1000208c:	0c000d36 	jal	100034d8 <panic>
10002090:	24040004 	li	a0,4
10002094:	08000802 	j	10002008 <main+0x248>
10002098:	00000000 	nop
1000209c:	0c000d36 	jal	100034d8 <panic>
100020a0:	24040004 	li	a0,4
100020a4:	080007f8 	j	10001fe0 <main+0x220>
100020a8:	00000000 	nop
100020ac:	0c000d36 	jal	100034d8 <panic>
100020b0:	24040004 	li	a0,4
100020b4:	080007fd 	j	10001ff4 <main+0x234>
100020b8:	00000000 	nop

100020bc <hf_free>:
100020bc:	27bdffe0 	addiu	sp,sp,-32
100020c0:	afb00014 	sw	s0,20(sp)
100020c4:	3c101000 	lui	s0,0x1000
100020c8:	afb10018 	sw	s1,24(sp)
100020cc:	00808821 	move	s1,a0
100020d0:	afbf001c 	sw	ra,28(sp)
100020d4:	0c000990 	jal	10002640 <hf_mtxlock>
100020d8:	26045318 	addiu	a0,s0,21272
100020dc:	8e25fffc 	lw	a1,-4(s1)
100020e0:	3c021008 	lui	v0,0x1008
100020e4:	8c4306e8 	lw	v1,1768(v0)
100020e8:	2404fffe 	li	a0,-2
100020ec:	00a42024 	and	a0,a1,a0
100020f0:	3c051008 	lui	a1,0x1008
100020f4:	8ca60700 	lw	a2,1792(a1)
100020f8:	24630008 	addiu	v1,v1,8
100020fc:	ae24fffc 	sw	a0,-4(s1)
10002100:	00641821 	addu	v1,v1,a0
10002104:	3c051008 	lui	a1,0x1008
10002108:	26045318 	addiu	a0,s0,21272
1000210c:	8fbf001c 	lw	ra,28(sp)
10002110:	8fb10018 	lw	s1,24(sp)
10002114:	8fb00014 	lw	s0,20(sp)
10002118:	27bd0020 	addiu	sp,sp,32
1000211c:	aca606fc 	sw	a2,1788(a1)
10002120:	080009a9 	j	100026a4 <hf_mtxunlock>
10002124:	ac4306e8 	sw	v1,1768(v0)

10002128 <hf_malloc>:
10002128:	27bdffe0 	addiu	sp,sp,-32
1000212c:	afb20018 	sw	s2,24(sp)
10002130:	3c121000 	lui	s2,0x1000
10002134:	afb10014 	sw	s1,20(sp)
10002138:	2402fffc 	li	v0,-4
1000213c:	24910003 	addiu	s1,a0,3
10002140:	26445318 	addiu	a0,s2,21272
10002144:	afb00010 	sw	s0,16(sp)
10002148:	afbf001c 	sw	ra,28(sp)
1000214c:	0c000990 	jal	10002640 <hf_mtxlock>
10002150:	02228824 	and	s1,s1,v0
10002154:	3c071008 	lui	a3,0x1008
10002158:	8ce306fc 	lw	v1,1788(a3)
1000215c:	2406fff8 	li	a2,-8
10002160:	00608021 	move	s0,v1
10002164:	26250008 	addiu	a1,s1,8
10002168:	8c640000 	lw	a0,0(v1)
1000216c:	00000000 	nop
10002170:	1080003a 	beqz	a0,1000225c <hf_malloc+0x134>
10002174:	00000000 	nop
10002178:	8c620004 	lw	v0,4(v1)
1000217c:	00000000 	nop
10002180:	30420001 	andi	v0,v0,0x1
10002184:	1040000a 	beqz	v0,100021b0 <hf_malloc+0x88>
10002188:	00000000 	nop
1000218c:	08000867 	j	1000219c <hf_malloc+0x74>
10002190:	00801821 	move	v1,a0
10002194:	8c630000 	lw	v1,0(v1)
10002198:	00000000 	nop
1000219c:	8c620004 	lw	v0,4(v1)
100021a0:	00000000 	nop
100021a4:	30420001 	andi	v0,v0,0x1
100021a8:	1440fffa 	bnez	v0,10002194 <hf_malloc+0x6c>
100021ac:	00608021 	move	s0,v1
100021b0:	1440000b 	bnez	v0,100021e0 <hf_malloc+0xb8>
100021b4:	00d01023 	subu	v0,a2,s0
100021b8:	8c640000 	lw	a0,0(v1)
100021bc:	00000000 	nop
100021c0:	10800007 	beqz	a0,100021e0 <hf_malloc+0xb8>
100021c4:	00d01023 	subu	v0,a2,s0
100021c8:	8c820004 	lw	v0,4(a0)
100021cc:	00000000 	nop
100021d0:	30420001 	andi	v0,v0,0x1
100021d4:	1040fff8 	beqz	v0,100021b8 <hf_malloc+0x90>
100021d8:	00801821 	move	v1,a0
100021dc:	00d01023 	subu	v0,a2,s0
100021e0:	00621021 	addu	v0,v1,v0
100021e4:	0045202b 	sltu	a0,v0,a1
100021e8:	ae020004 	sw	v0,4(s0)
100021ec:	1480ffde 	bnez	a0,10002168 <hf_malloc+0x40>
100021f0:	ae030000 	sw	v1,0(s0)
100021f4:	3c021008 	lui	v0,0x1008
100021f8:	8c4806e8 	lw	t0,1768(v0)
100021fc:	36240001 	ori	a0,s1,0x1
10002200:	2409fff8 	li	t1,-8
10002204:	2406fffe 	li	a2,-2
10002208:	01314823 	subu	t1,t1,s1
1000220c:	00863024 	and	a2,a0,a2
10002210:	02052821 	addu	a1,s0,a1
10002214:	01263021 	addu	a2,t1,a2
10002218:	2508fff8 	addiu	t0,t0,-8
1000221c:	acf006fc 	sw	s0,1788(a3)
10002220:	ae040004 	sw	a0,4(s0)
10002224:	ae050000 	sw	a1,0(s0)
10002228:	01118823 	subu	s1,t0,s1
1000222c:	aca30000 	sw	v1,0(a1)
10002230:	aca60004 	sw	a2,4(a1)
10002234:	26445318 	addiu	a0,s2,21272
10002238:	0c0009a9 	jal	100026a4 <hf_mtxunlock>
1000223c:	ac5106e8 	sw	s1,1768(v0)
10002240:	26020008 	addiu	v0,s0,8
10002244:	8fbf001c 	lw	ra,28(sp)
10002248:	8fb20018 	lw	s2,24(sp)
1000224c:	8fb10014 	lw	s1,20(sp)
10002250:	8fb00010 	lw	s0,16(sp)
10002254:	03e00008 	jr	ra
10002258:	27bd0020 	addiu	sp,sp,32
1000225c:	0c0009a9 	jal	100026a4 <hf_mtxunlock>
10002260:	26445318 	addiu	a0,s2,21272
10002264:	08000891 	j	10002244 <hf_malloc+0x11c>
10002268:	00001021 	move	v0,zero

1000226c <heapinit>:
1000226c:	00801021 	move	v0,a0
10002270:	2403fffc 	li	v1,-4
10002274:	24a40003 	addiu	a0,a1,3
10002278:	00831824 	and	v1,a0,v1
1000227c:	00452821 	addu	a1,v0,a1
10002280:	24a4fff8 	addiu	a0,a1,-8
10002284:	2463fff0 	addiu	v1,v1,-16
10002288:	ac440000 	sw	a0,0(v0)
1000228c:	ac430004 	sw	v1,4(v0)
10002290:	aca0fff8 	sw	zero,-8(a1)
10002294:	aca0fffc 	sw	zero,-4(a1)
10002298:	3c051008 	lui	a1,0x1008
1000229c:	8c430004 	lw	v1,4(v0)
100022a0:	aca20700 	sw	v0,1792(a1)
100022a4:	3c041000 	lui	a0,0x1000
100022a8:	3c051008 	lui	a1,0x1008
100022ac:	aca206fc 	sw	v0,1788(a1)
100022b0:	24845318 	addiu	a0,a0,21272
100022b4:	3c021008 	lui	v0,0x1008
100022b8:	0800098d 	j	10002634 <hf_mtxinit>
100022bc:	ac4306e8 	sw	v1,1768(v0)

100022c0 <matrix_print>:
100022c0:	27bdffd0 	addiu	sp,sp,-48
100022c4:	afb10014 	sw	s1,20(sp)
100022c8:	afb00010 	sw	s0,16(sp)
100022cc:	00058c00 	sll	s1,a1,0x10
100022d0:	00068400 	sll	s0,a2,0x10
100022d4:	00118c03 	sra	s1,s1,0x10
100022d8:	afb20018 	sw	s2,24(sp)
100022dc:	00108403 	sra	s0,s0,0x10
100022e0:	00809021 	move	s2,a0
100022e4:	3c041000 	lui	a0,0x1000
100022e8:	02202821 	move	a1,s1
100022ec:	248448a8 	addiu	a0,a0,18600
100022f0:	02003021 	move	a2,s0
100022f4:	afbf002c 	sw	ra,44(sp)
100022f8:	afb60028 	sw	s6,40(sp)
100022fc:	afb50024 	sw	s5,36(sp)
10002300:	afb40020 	sw	s4,32(sp)
10002304:	0c0006ff 	jal	10001bfc <printf>
10002308:	afb3001c 	sw	s3,28(sp)
1000230c:	1a200019 	blez	s1,10002374 <matrix_print+0xb4>
10002310:	3c141000 	lui	s4,0x1000
10002314:	3c161000 	lui	s6,0x1000
10002318:	0000a821 	move	s5,zero
1000231c:	269448c4 	addiu	s4,s4,18628
10002320:	26d64494 	addiu	s6,s6,17556
10002324:	1a00000c 	blez	s0,10002358 <matrix_print+0x98>
10002328:	00000000 	nop
1000232c:	00009821 	move	s3,zero
10002330:	02531021 	addu	v0,s2,s3
10002334:	90450000 	lbu	a1,0(v0)
10002338:	02802021 	move	a0,s4
1000233c:	0c0006ff 	jal	10001bfc <printf>
10002340:	26730001 	addiu	s3,s3,1
10002344:	00131400 	sll	v0,s3,0x10
10002348:	00021403 	sra	v0,v0,0x10
1000234c:	0050102a 	slt	v0,v0,s0
10002350:	1440fff8 	bnez	v0,10002334 <matrix_print+0x74>
10002354:	02531021 	addu	v0,s2,s3
10002358:	26b50001 	addiu	s5,s5,1
1000235c:	0015ac00 	sll	s5,s5,0x10
10002360:	02c02021 	move	a0,s6
10002364:	0c0006ff 	jal	10001bfc <printf>
10002368:	0015ac03 	sra	s5,s5,0x10
1000236c:	1635ffed 	bne	s1,s5,10002324 <matrix_print+0x64>
10002370:	02509021 	addu	s2,s2,s0
10002374:	8fbf002c 	lw	ra,44(sp)
10002378:	8fb60028 	lw	s6,40(sp)
1000237c:	8fb50024 	lw	s5,36(sp)
10002380:	8fb40020 	lw	s4,32(sp)
10002384:	8fb3001c 	lw	s3,28(sp)
10002388:	8fb20018 	lw	s2,24(sp)
1000238c:	8fb10014 	lw	s1,20(sp)
10002390:	8fb00010 	lw	s0,16(sp)
10002394:	03e00008 	jr	ra
10002398:	27bd0030 	addiu	sp,sp,48

1000239c <get_sub_matrix>:
1000239c:	27bdffc0 	addiu	sp,sp,-64
100023a0:	afb5002c 	sw	s5,44(sp)
100023a4:	afb1001c 	sw	s1,28(sp)
100023a8:	afb00018 	sw	s0,24(sp)
100023ac:	87b50052 	lh	s5,82(sp)
100023b0:	87b0005a 	lh	s0,90(sp)
100023b4:	87b1005e 	lh	s1,94(sp)
100023b8:	afb60030 	sw	s6,48(sp)
100023bc:	afb40028 	sw	s4,40(sp)
100023c0:	0080b021 	move	s6,a0
100023c4:	87b40056 	lh	s4,86(sp)
100023c8:	3c041000 	lui	a0,0x1000
100023cc:	afb30024 	sw	s3,36(sp)
100023d0:	afb20020 	sw	s2,32(sp)
100023d4:	00a09821 	move	s3,a1
100023d8:	00079400 	sll	s2,a3,0x10
100023dc:	24844900 	addiu	a0,a0,18688
100023e0:	02002821 	move	a1,s0
100023e4:	02203021 	move	a2,s1
100023e8:	02a03821 	move	a3,s5
100023ec:	afbf003c 	sw	ra,60(sp)
100023f0:	afbe0038 	sw	s8,56(sp)
100023f4:	afb70034 	sw	s7,52(sp)
100023f8:	00129403 	sra	s2,s2,0x10
100023fc:	0c0006ff 	jal	10001bfc <printf>
10002400:	afb40010 	sw	s4,16(sp)
10002404:	1a000013 	blez	s0,10002454 <get_sub_matrix+0xb8>
10002408:	02b20018 	mult	s5,s2
1000240c:	0000f021 	move	s8,zero
10002410:	3235ffff 	andi	s5,s1,0xffff
10002414:	0000b821 	move	s7,zero
10002418:	00001012 	mflo	v0
1000241c:	0282a021 	addu	s4,s4,v0
10002420:	02d4b021 	addu	s6,s6,s4
10002424:	26f70001 	addiu	s7,s7,1
10002428:	027e2021 	addu	a0,s3,s8
1000242c:	0017bc00 	sll	s7,s7,0x10
10002430:	02bef021 	addu	s8,s5,s8
10002434:	02c02821 	move	a1,s6
10002438:	02203021 	move	a2,s1
1000243c:	001ef400 	sll	s8,s8,0x10
10002440:	0c0006ea 	jal	10001ba8 <memcpy>
10002444:	0017bc03 	sra	s7,s7,0x10
10002448:	001ef403 	sra	s8,s8,0x10
1000244c:	1617fff5 	bne	s0,s7,10002424 <get_sub_matrix+0x88>
10002450:	02d2b021 	addu	s6,s6,s2
10002454:	8fbf003c 	lw	ra,60(sp)
10002458:	8fbe0038 	lw	s8,56(sp)
1000245c:	8fb70034 	lw	s7,52(sp)
10002460:	8fb60030 	lw	s6,48(sp)
10002464:	8fb5002c 	lw	s5,44(sp)
10002468:	8fb40028 	lw	s4,40(sp)
1000246c:	8fb30024 	lw	s3,36(sp)
10002470:	8fb20020 	lw	s2,32(sp)
10002474:	8fb1001c 	lw	s1,28(sp)
10002478:	8fb00018 	lw	s0,24(sp)
1000247c:	03e00008 	jr	ra
10002480:	27bd0040 	addiu	sp,sp,64

10002484 <set_sub_matrix>:
10002484:	27bdffc0 	addiu	sp,sp,-64
10002488:	afb5002c 	sw	s5,44(sp)
1000248c:	afb1001c 	sw	s1,28(sp)
10002490:	afb00018 	sw	s0,24(sp)
10002494:	87b50052 	lh	s5,82(sp)
10002498:	87b0005a 	lh	s0,90(sp)
1000249c:	87b1005e 	lh	s1,94(sp)
100024a0:	afb60030 	sw	s6,48(sp)
100024a4:	afb40028 	sw	s4,40(sp)
100024a8:	0080b021 	move	s6,a0
100024ac:	87b40056 	lh	s4,86(sp)
100024b0:	3c041000 	lui	a0,0x1000
100024b4:	afb30024 	sw	s3,36(sp)
100024b8:	afb20020 	sw	s2,32(sp)
100024bc:	00a09821 	move	s3,a1
100024c0:	00079400 	sll	s2,a3,0x10
100024c4:	24844930 	addiu	a0,a0,18736
100024c8:	02002821 	move	a1,s0
100024cc:	02203021 	move	a2,s1
100024d0:	02a03821 	move	a3,s5
100024d4:	afbf003c 	sw	ra,60(sp)
100024d8:	afbe0038 	sw	s8,56(sp)
100024dc:	afb70034 	sw	s7,52(sp)
100024e0:	00129403 	sra	s2,s2,0x10
100024e4:	0c0006ff 	jal	10001bfc <printf>
100024e8:	afb40010 	sw	s4,16(sp)
100024ec:	1a000013 	blez	s0,1000253c <set_sub_matrix+0xb8>
100024f0:	02b20018 	mult	s5,s2
100024f4:	0000f021 	move	s8,zero
100024f8:	3235ffff 	andi	s5,s1,0xffff
100024fc:	0000b821 	move	s7,zero
10002500:	00001012 	mflo	v0
10002504:	0282a021 	addu	s4,s4,v0
10002508:	02d4b021 	addu	s6,s6,s4
1000250c:	26f70001 	addiu	s7,s7,1
10002510:	027e2821 	addu	a1,s3,s8
10002514:	0017bc00 	sll	s7,s7,0x10
10002518:	02bef021 	addu	s8,s5,s8
1000251c:	02c02021 	move	a0,s6
10002520:	02203021 	move	a2,s1
10002524:	001ef400 	sll	s8,s8,0x10
10002528:	0c0006ea 	jal	10001ba8 <memcpy>
1000252c:	0017bc03 	sra	s7,s7,0x10
10002530:	001ef403 	sra	s8,s8,0x10
10002534:	1617fff5 	bne	s0,s7,1000250c <set_sub_matrix+0x88>
10002538:	02d2b021 	addu	s6,s6,s2
1000253c:	8fbf003c 	lw	ra,60(sp)
10002540:	8fbe0038 	lw	s8,56(sp)
10002544:	8fb70034 	lw	s7,52(sp)
10002548:	8fb60030 	lw	s6,48(sp)
1000254c:	8fb5002c 	lw	s5,44(sp)
10002550:	8fb40028 	lw	s4,40(sp)
10002554:	8fb30024 	lw	s3,36(sp)
10002558:	8fb20020 	lw	s2,32(sp)
1000255c:	8fb1001c 	lw	s1,28(sp)
10002560:	8fb00018 	lw	s0,24(sp)
10002564:	03e00008 	jr	ra
10002568:	27bd0040 	addiu	sp,sp,64

1000256c <set_matrix_borders>:
1000256c:	27bdffd0 	addiu	sp,sp,-48
10002570:	afb00010 	sw	s0,16(sp)
10002574:	00058400 	sll	s0,a1,0x10
10002578:	afb40020 	sw	s4,32(sp)
1000257c:	00108403 	sra	s0,s0,0x10
10002580:	0006a400 	sll	s4,a2,0x10
10002584:	afb60028 	sw	s6,40(sp)
10002588:	afb50024 	sw	s5,36(sp)
1000258c:	afbf002c 	sw	ra,44(sp)
10002590:	afb3001c 	sw	s3,28(sp)
10002594:	afb20018 	sw	s2,24(sp)
10002598:	afb10014 	sw	s1,20(sp)
1000259c:	00e0a821 	move	s5,a3
100025a0:	87a20046 	lh	v0,70(sp)
100025a4:	87b6004a 	lh	s6,74(sp)
100025a8:	1a000018 	blez	s0,1000260c <set_matrix_borders+0xa0>
100025ac:	0014a403 	sra	s4,s4,0x10
100025b0:	00169fc2 	srl	s3,s6,0x1f
100025b4:	02769821 	addu	s3,s3,s6
100025b8:	00139843 	sra	s3,s3,0x1
100025bc:	00021040 	sll	v0,v0,0x1
100025c0:	02629821 	addu	s3,s3,v0
100025c4:	02d4b021 	addu	s6,s6,s4
100025c8:	00139c00 	sll	s3,s3,0x10
100025cc:	00139c03 	sra	s3,s3,0x10
100025d0:	32d6ffff 	andi	s6,s6,0xffff
100025d4:	00809021 	move	s2,a0
100025d8:	00008821 	move	s1,zero
100025dc:	26310001 	addiu	s1,s1,1
100025e0:	02b32021 	addu	a0,s5,s3
100025e4:	00118c00 	sll	s1,s1,0x10
100025e8:	02d39821 	addu	s3,s6,s3
100025ec:	02402821 	move	a1,s2
100025f0:	02803021 	move	a2,s4
100025f4:	00139c00 	sll	s3,s3,0x10
100025f8:	0c0006ea 	jal	10001ba8 <memcpy>
100025fc:	00118c03 	sra	s1,s1,0x10
10002600:	00139c03 	sra	s3,s3,0x10
10002604:	1611fff5 	bne	s0,s1,100025dc <set_matrix_borders+0x70>
10002608:	02549021 	addu	s2,s2,s4
1000260c:	8fbf002c 	lw	ra,44(sp)
10002610:	8fb60028 	lw	s6,40(sp)
10002614:	8fb50024 	lw	s5,36(sp)
10002618:	8fb40020 	lw	s4,32(sp)
1000261c:	8fb3001c 	lw	s3,28(sp)
10002620:	8fb20018 	lw	s2,24(sp)
10002624:	8fb10014 	lw	s1,20(sp)
10002628:	8fb00010 	lw	s0,16(sp)
1000262c:	03e00008 	jr	ra
10002630:	27bd0030 	addiu	sp,sp,48

10002634 <hf_mtxinit>:
10002634:	ac800000 	sw	zero,0(a0)
10002638:	03e00008 	jr	ra
1000263c:	00000000 	nop

10002640 <hf_mtxlock>:
10002640:	27bdffd8 	addiu	sp,sp,-40
10002644:	afb10020 	sw	s1,32(sp)
10002648:	afb0001c 	sw	s0,28(sp)
1000264c:	afbf0024 	sw	ra,36(sp)
10002650:	00808821 	move	s1,a0
10002654:	24100001 	li	s0,1
10002658:	0c00007b 	jal	100001ec <_interrupt_set>
1000265c:	00002021 	move	a0,zero
10002660:	afa20014 	sw	v0,20(sp)
10002664:	8e220000 	lw	v0,0(s1)
10002668:	00000000 	nop
1000266c:	afa20010 	sw	v0,16(sp)
10002670:	ae300000 	sw	s0,0(s1)
10002674:	8fa40014 	lw	a0,20(sp)
10002678:	0c00007b 	jal	100001ec <_interrupt_set>
1000267c:	00000000 	nop
10002680:	8fa20010 	lw	v0,16(sp)
10002684:	00000000 	nop
10002688:	1050fff3 	beq	v0,s0,10002658 <hf_mtxlock+0x18>
1000268c:	00000000 	nop
10002690:	8fbf0024 	lw	ra,36(sp)
10002694:	8fb10020 	lw	s1,32(sp)
10002698:	8fb0001c 	lw	s0,28(sp)
1000269c:	03e00008 	jr	ra
100026a0:	27bd0028 	addiu	sp,sp,40

100026a4 <hf_mtxunlock>:
100026a4:	ac800000 	sw	zero,0(a0)
100026a8:	03e00008 	jr	ra
100026ac:	00000000 	nop

100026b0 <_ni_status>:
100026b0:	3c022000 	lui	v0,0x2000
100026b4:	8c420090 	lw	v0,144(v0)
100026b8:	03e00008 	jr	ra
100026bc:	3042ffff 	andi	v0,v0,0xffff

100026c0 <_ni_read>:
100026c0:	3c022000 	lui	v0,0x2000
100026c4:	8c420070 	lw	v0,112(v0)
100026c8:	03e00008 	jr	ra
100026cc:	3042ffff 	andi	v0,v0,0xffff

100026d0 <_ni_write>:
100026d0:	3084ffff 	andi	a0,a0,0xffff
100026d4:	3c022000 	lui	v0,0x2000
100026d8:	ac440080 	sw	a0,128(v0)
100026dc:	03e00008 	jr	ra
100026e0:	00000000 	nop

100026e4 <ni_isr>:
100026e4:	27bdffc0 	addiu	sp,sp,-64
100026e8:	00002021 	move	a0,zero
100026ec:	afbf003c 	sw	ra,60(sp)
100026f0:	afb5002c 	sw	s5,44(sp)
100026f4:	afbe0038 	sw	s8,56(sp)
100026f8:	afb70034 	sw	s7,52(sp)
100026fc:	afb60030 	sw	s6,48(sp)
10002700:	afb40028 	sw	s4,40(sp)
10002704:	afb30024 	sw	s3,36(sp)
10002708:	afb20020 	sw	s2,32(sp)
1000270c:	afb1001c 	sw	s1,28(sp)
10002710:	0c00007b 	jal	100001ec <_interrupt_set>
10002714:	afb00018 	sw	s0,24(sp)
10002718:	0c0009b0 	jal	100026c0 <_ni_read>
1000271c:	00000000 	nop
10002720:	0c0009b0 	jal	100026c0 <_ni_read>
10002724:	00000000 	nop
10002728:	0c0009b0 	jal	100026c0 <_ni_read>
1000272c:	0040a821 	move	s5,v0
10002730:	2403003e 	li	v1,62
10002734:	1043000d 	beq	v0,v1,1000276c <ni_isr+0x88>
10002738:	00000000 	nop
1000273c:	8fbf003c 	lw	ra,60(sp)
10002740:	8fbe0038 	lw	s8,56(sp)
10002744:	8fb70034 	lw	s7,52(sp)
10002748:	8fb60030 	lw	s6,48(sp)
1000274c:	8fb5002c 	lw	s5,44(sp)
10002750:	8fb40028 	lw	s4,40(sp)
10002754:	8fb30024 	lw	s3,36(sp)
10002758:	8fb20020 	lw	s2,32(sp)
1000275c:	8fb1001c 	lw	s1,28(sp)
10002760:	8fb00018 	lw	s0,24(sp)
10002764:	03e00008 	jr	ra
10002768:	27bd0040 	addiu	sp,sp,64
1000276c:	0c0009b0 	jal	100026c0 <_ni_read>
10002770:	00000000 	nop
10002774:	0c0009b0 	jal	100026c0 <_ni_read>
10002778:	00409821 	move	s3,v0
1000277c:	0c0009b0 	jal	100026c0 <_ni_read>
10002780:	00408021 	move	s0,v0
10002784:	0c0009b0 	jal	100026c0 <_ni_read>
10002788:	00409021 	move	s2,v0
1000278c:	0c0009b0 	jal	100026c0 <_ni_read>
10002790:	0040f021 	move	s8,v0
10002794:	0c0009b0 	jal	100026c0 <_ni_read>
10002798:	0040b821 	move	s7,v0
1000279c:	0040b021 	move	s6,v0
100027a0:	3c021008 	lui	v0,0x1008
100027a4:	24420624 	addiu	v0,v0,1572
100027a8:	00001821 	move	v1,zero
100027ac:	080009f0 	j	100027c0 <ni_isr+0xdc>
100027b0:	2405001e 	li	a1,30
100027b4:	24630001 	addiu	v1,v1,1
100027b8:	10650046 	beq	v1,a1,100028d4 <ni_isr+0x1f0>
100027bc:	3c041000 	lui	a0,0x1000
100027c0:	94440000 	lhu	a0,0(v0)
100027c4:	00000000 	nop
100027c8:	1492fffa 	bne	a0,s2,100027b4 <ni_isr+0xd0>
100027cc:	24420002 	addiu	v0,v0,2
100027d0:	10600040 	beqz	v1,100028d4 <ni_isr+0x1f0>
100027d4:	3c041000 	lui	a0,0x1000
100027d8:	00031080 	sll	v0,v1,0x2
100027dc:	afa20010 	sw	v0,16(sp)
100027e0:	8fa40010 	lw	a0,16(sp)
100027e4:	00031100 	sll	v0,v1,0x4
100027e8:	00821021 	addu	v0,a0,v0
100027ec:	00431823 	subu	v1,v0,v1
100027f0:	3c021000 	lui	v0,0x1000
100027f4:	000318c0 	sll	v1,v1,0x3
100027f8:	2442531c 	addiu	v0,v0,21276
100027fc:	00621021 	addu	v0,v1,v0
10002800:	8c420088 	lw	v0,136(v0)
10002804:	00000000 	nop
10002808:	10400031 	beqz	v0,100028d0 <ni_isr+0x1ec>
1000280c:	3c141008 	lui	s4,0x1008
10002810:	8e840704 	lw	a0,1796(s4)
10002814:	0c000ddb 	jal	1000376c <hf_queue_remhead>
10002818:	00000000 	nop
1000281c:	10400039 	beqz	v0,10002904 <ni_isr+0x220>
10002820:	00408821 	move	s1,v0
10002824:	a4550000 	sh	s5,0(v0)
10002828:	2402003e 	li	v0,62
1000282c:	a6330004 	sh	s3,4(s1)
10002830:	a6300006 	sh	s0,6(s1)
10002834:	a6220002 	sh	v0,2(s1)
10002838:	a6320008 	sh	s2,8(s1)
1000283c:	a63e000a 	sh	s8,10(s1)
10002840:	a637000c 	sh	s7,12(s1)
10002844:	a636000e 	sh	s6,14(s1)
10002848:	00008021 	move	s0,zero
1000284c:	24130070 	li	s3,112
10002850:	0c0009b0 	jal	100026c0 <_ni_read>
10002854:	00000000 	nop
10002858:	02301821 	addu	v1,s1,s0
1000285c:	26100002 	addiu	s0,s0,2
10002860:	1613fffb 	bne	s0,s3,10002850 <ni_isr+0x16c>
10002864:	a4620010 	sh	v0,16(v1)
10002868:	3c021008 	lui	v0,0x1008
1000286c:	8fa30010 	lw	v1,16(sp)
10002870:	24420660 	addiu	v0,v0,1632
10002874:	00431021 	addu	v0,v0,v1
10002878:	8c440000 	lw	a0,0(v0)
1000287c:	0c000dc3 	jal	1000370c <hf_queue_addtail>
10002880:	02202821 	move	a1,s1
10002884:	1040ffad 	beqz	v0,1000273c <ni_isr+0x58>
10002888:	3c041000 	lui	a0,0x1000
1000288c:	02402821 	move	a1,s2
10002890:	0c00056f 	jal	100015bc <kprintf>
10002894:	2484496c 	addiu	a0,a0,18796
10002898:	8e840704 	lw	a0,1796(s4)
1000289c:	02202821 	move	a1,s1
100028a0:	8fbf003c 	lw	ra,60(sp)
100028a4:	8fbe0038 	lw	s8,56(sp)
100028a8:	8fb70034 	lw	s7,52(sp)
100028ac:	8fb60030 	lw	s6,48(sp)
100028b0:	8fb5002c 	lw	s5,44(sp)
100028b4:	8fb40028 	lw	s4,40(sp)
100028b8:	8fb30024 	lw	s3,36(sp)
100028bc:	8fb20020 	lw	s2,32(sp)
100028c0:	8fb1001c 	lw	s1,28(sp)
100028c4:	8fb00018 	lw	s0,24(sp)
100028c8:	08000dc3 	j	1000370c <hf_queue_addtail>
100028cc:	27bd0040 	addiu	sp,sp,64
100028d0:	3c041000 	lui	a0,0x1000
100028d4:	02003821 	move	a3,s0
100028d8:	248449d4 	addiu	a0,a0,18900
100028dc:	02402821 	move	a1,s2
100028e0:	0c00056f 	jal	100015bc <kprintf>
100028e4:	02603021 	move	a2,s3
100028e8:	24100038 	li	s0,56
100028ec:	0c0009b0 	jal	100026c0 <_ni_read>
100028f0:	2610ffff 	addiu	s0,s0,-1
100028f4:	1600fffd 	bnez	s0,100028ec <ni_isr+0x208>
100028f8:	00000000 	nop
100028fc:	080009cf 	j	1000273c <ni_isr+0x58>
10002900:	00000000 	nop
10002904:	3c041000 	lui	a0,0x1000
10002908:	0c00056f 	jal	100015bc <kprintf>
1000290c:	248449a8 	addiu	a0,a0,18856
10002910:	24100038 	li	s0,56
10002914:	0c0009b0 	jal	100026c0 <_ni_read>
10002918:	2610ffff 	addiu	s0,s0,-1
1000291c:	1600fffd 	bnez	s0,10002914 <ni_isr+0x230>
10002920:	00000000 	nop
10002924:	080009cf 	j	1000273c <ni_isr+0x58>
10002928:	00000000 	nop

1000292c <ni_init>:
1000292c:	3c041000 	lui	a0,0x1000
10002930:	27bdffd8 	addiu	sp,sp,-40
10002934:	24844a20 	addiu	a0,a0,18976
10002938:	24050001 	li	a1,1
1000293c:	afbf0024 	sw	ra,36(sp)
10002940:	afb10020 	sw	s1,32(sp)
10002944:	0c00056f 	jal	100015bc <kprintf>
10002948:	afb0001c 	sw	s0,28(sp)
1000294c:	3c041000 	lui	a0,0x1000
10002950:	24844a3c 	addiu	a0,a0,19004
10002954:	0c00056f 	jal	100015bc <kprintf>
10002958:	24050040 	li	a1,64
1000295c:	0c000da4 	jal	10003690 <hf_queue_create>
10002960:	24040040 	li	a0,64
10002964:	3c111008 	lui	s1,0x1008
10002968:	1040002d 	beqz	v0,10002a20 <ni_init+0xf4>
1000296c:	ae220704 	sw	v0,1796(s1)
10002970:	3c021008 	lui	v0,0x1008
10002974:	24420624 	addiu	v0,v0,1572
10002978:	2443003c 	addiu	v1,v0,60
1000297c:	a4400000 	sh	zero,0(v0)
10002980:	24420002 	addiu	v0,v0,2
10002984:	1443fffd 	bne	v0,v1,1000297c <ni_init+0x50>
10002988:	00000000 	nop
1000298c:	08000a6a 	j	100029a8 <ni_init+0x7c>
10002990:	24100040 	li	s0,64
10002994:	8e240704 	lw	a0,1796(s1)
10002998:	0c000dc3 	jal	1000370c <hf_queue_addtail>
1000299c:	00402821 	move	a1,v0
100029a0:	1200000e 	beqz	s0,100029dc <ni_init+0xb0>
100029a4:	00000000 	nop
100029a8:	0c00084a 	jal	10002128 <hf_malloc>
100029ac:	24040080 	li	a0,128
100029b0:	1440fff8 	bnez	v0,10002994 <ni_init+0x68>
100029b4:	2610ffff 	addiu	s0,s0,-1
100029b8:	24040004 	li	a0,4
100029bc:	0c000d36 	jal	100034d8 <panic>
100029c0:	afa20010 	sw	v0,16(sp)
100029c4:	8fa20010 	lw	v0,16(sp)
100029c8:	8e240704 	lw	a0,1796(s1)
100029cc:	0c000dc3 	jal	1000370c <hf_queue_addtail>
100029d0:	00402821 	move	a1,v0
100029d4:	1600fff4 	bnez	s0,100029a8 <ni_init+0x7c>
100029d8:	00000000 	nop
100029dc:	24100040 	li	s0,64
100029e0:	0c0009b0 	jal	100026c0 <_ni_read>
100029e4:	2610ffff 	addiu	s0,s0,-1
100029e8:	1600fffd 	bnez	s0,100029e0 <ni_init+0xb4>
100029ec:	3c051000 	lui	a1,0x1000
100029f0:	24040100 	li	a0,256
100029f4:	0c0004f1 	jal	100013c4 <_irq_register>
100029f8:	24a526e4 	addiu	a1,a1,9956
100029fc:	0c00051e 	jal	10001478 <_irq_mask_set>
10002a00:	24040100 	li	a0,256
10002a04:	3c041000 	lui	a0,0x1000
10002a08:	8fbf0024 	lw	ra,36(sp)
10002a0c:	8fb10020 	lw	s1,32(sp)
10002a10:	8fb0001c 	lw	s0,28(sp)
10002a14:	24844a60 	addiu	a0,a0,19040
10002a18:	0800056f 	j	100015bc <kprintf>
10002a1c:	27bd0028 	addiu	sp,sp,40
10002a20:	0c000d36 	jal	100034d8 <panic>
10002a24:	24040004 	li	a0,4
10002a28:	08000a5d 	j	10002974 <ni_init+0x48>
10002a2c:	3c021008 	lui	v0,0x1008

10002a30 <hf_cpuid>:
10002a30:	03e00008 	jr	ra
10002a34:	24020001 	li	v0,1

10002a38 <hf_comm_create>:
10002a38:	27bdffd8 	addiu	sp,sp,-40
10002a3c:	afb00010 	sw	s0,16(sp)
10002a40:	3090ffff 	andi	s0,a0,0xffff
10002a44:	2e02001e 	sltiu	v0,s0,30
10002a48:	afb10014 	sw	s1,20(sp)
10002a4c:	afbf0024 	sw	ra,36(sp)
10002a50:	afb40020 	sw	s4,32(sp)
10002a54:	afb3001c 	sw	s3,28(sp)
10002a58:	afb20018 	sw	s2,24(sp)
10002a5c:	30b1ffff 	andi	s1,a1,0xffff
10002a60:	10400045 	beqz	v0,10002b78 <hf_comm_create+0x140>
10002a64:	30c6ffff 	andi	a2,a2,0xffff
10002a68:	00109080 	sll	s2,s0,0x2
10002a6c:	00101900 	sll	v1,s0,0x4
10002a70:	02431821 	addu	v1,s2,v1
10002a74:	00701823 	subu	v1,v1,s0
10002a78:	3c021000 	lui	v0,0x1000
10002a7c:	000318c0 	sll	v1,v1,0x3
10002a80:	2442531c 	addiu	v0,v0,21276
10002a84:	00621021 	addu	v0,v1,v0
10002a88:	8c420088 	lw	v0,136(v0)
10002a8c:	00000000 	nop
10002a90:	10400039 	beqz	v0,10002b78 <hf_comm_create+0x140>
10002a94:	3c141008 	lui	s4,0x1008
10002a98:	26940660 	addiu	s4,s4,1632
10002a9c:	02921021 	addu	v0,s4,s2
10002aa0:	8c420000 	lw	v0,0(v0)
10002aa4:	00000000 	nop
10002aa8:	1440002a 	bnez	v0,10002b54 <hf_comm_create+0x11c>
10002aac:	3c131008 	lui	s3,0x1008
10002ab0:	26730624 	addiu	s3,s3,1572
10002ab4:	02601021 	move	v0,s3
10002ab8:	08000ab2 	j	10002ac8 <hf_comm_create+0x90>
10002abc:	2665003c 	addiu	a1,s3,60
10002ac0:	1045000e 	beq	v0,a1,10002afc <hf_comm_create+0xc4>
10002ac4:	00000000 	nop
10002ac8:	94430000 	lhu	v1,0(v0)
10002acc:	00000000 	nop
10002ad0:	1471fffb 	bne	v1,s1,10002ac0 <hf_comm_create+0x88>
10002ad4:	24420002 	addiu	v0,v0,2
10002ad8:	2402ff31 	li	v0,-207
10002adc:	8fbf0024 	lw	ra,36(sp)
10002ae0:	8fb40020 	lw	s4,32(sp)
10002ae4:	8fb3001c 	lw	s3,28(sp)
10002ae8:	8fb20018 	lw	s2,24(sp)
10002aec:	8fb10014 	lw	s1,20(sp)
10002af0:	8fb00010 	lw	s0,16(sp)
10002af4:	03e00008 	jr	ra
10002af8:	27bd0028 	addiu	sp,sp,40
10002afc:	24c2ffff 	addiu	v0,a2,-1
10002b00:	3042ffff 	andi	v0,v0,0xffff
10002b04:	2c420040 	sltiu	v0,v0,64
10002b08:	10400002 	beqz	v0,10002b14 <hf_comm_create+0xdc>
10002b0c:	24040040 	li	a0,64
10002b10:	00c02021 	move	a0,a2
10002b14:	0c000da4 	jal	10003690 <hf_queue_create>
10002b18:	02929021 	addu	s2,s4,s2
10002b1c:	10400018 	beqz	v0,10002b80 <hf_comm_create+0x148>
10002b20:	ae420000 	sw	v0,0(s2)
10002b24:	00108040 	sll	s0,s0,0x1
10002b28:	8fbf0024 	lw	ra,36(sp)
10002b2c:	02709821 	addu	s3,s3,s0
10002b30:	a6710000 	sh	s1,0(s3)
10002b34:	00001021 	move	v0,zero
10002b38:	8fb40020 	lw	s4,32(sp)
10002b3c:	8fb3001c 	lw	s3,28(sp)
10002b40:	8fb20018 	lw	s2,24(sp)
10002b44:	8fb10014 	lw	s1,20(sp)
10002b48:	8fb00010 	lw	s0,16(sp)
10002b4c:	03e00008 	jr	ra
10002b50:	27bd0028 	addiu	sp,sp,40
10002b54:	8fbf0024 	lw	ra,36(sp)
10002b58:	2402ff32 	li	v0,-206
10002b5c:	8fb40020 	lw	s4,32(sp)
10002b60:	8fb3001c 	lw	s3,28(sp)
10002b64:	8fb20018 	lw	s2,24(sp)
10002b68:	8fb10014 	lw	s1,20(sp)
10002b6c:	8fb00010 	lw	s0,16(sp)
10002b70:	03e00008 	jr	ra
10002b74:	27bd0028 	addiu	sp,sp,40
10002b78:	08000ab7 	j	10002adc <hf_comm_create+0xa4>
10002b7c:	2402ff9c 	li	v0,-100
10002b80:	08000ab7 	j	10002adc <hf_comm_create+0xa4>
10002b84:	2402ff98 	li	v0,-104

10002b88 <hf_recv>:
10002b88:	27bdffb0 	addiu	sp,sp,-80
10002b8c:	afb70044 	sw	s7,68(sp)
10002b90:	afb40038 	sw	s4,56(sp)
10002b94:	afb30034 	sw	s3,52(sp)
10002b98:	afb20030 	sw	s2,48(sp)
10002b9c:	afb1002c 	sw	s1,44(sp)
10002ba0:	afb00028 	sw	s0,40(sp)
10002ba4:	00808821 	move	s1,a0
10002ba8:	afbf004c 	sw	ra,76(sp)
10002bac:	afbe0048 	sw	s8,72(sp)
10002bb0:	afb60040 	sw	s6,64(sp)
10002bb4:	afb5003c 	sw	s5,60(sp)
10002bb8:	00a08021 	move	s0,a1
10002bbc:	00c09021 	move	s2,a2
10002bc0:	97b40062 	lhu	s4,98(sp)
10002bc4:	0c000fd9 	jal	10003f64 <hf_selfid>
10002bc8:	00e0b821 	move	s7,a3
10002bcc:	3c031008 	lui	v1,0x1008
10002bd0:	00021080 	sll	v0,v0,0x2
10002bd4:	24630660 	addiu	v1,v1,1632
10002bd8:	00629821 	addu	s3,v1,v0
10002bdc:	8e640000 	lw	a0,0(s3)
10002be0:	00000000 	nop
10002be4:	108000ea 	beqz	a0,10002f90 <hf_recv+0x408>
10002be8:	afa20020 	sw	v0,32(sp)
10002bec:	0c000dc0 	jal	10003700 <hf_queue_count>
10002bf0:	24160001 	li	s6,1
10002bf4:	14400006 	bnez	v0,10002c10 <hf_recv+0x88>
10002bf8:	00000000 	nop
10002bfc:	8e640000 	lw	a0,0(s3)
10002c00:	0c000dc0 	jal	10003700 <hf_queue_count>
10002c04:	00000000 	nop
10002c08:	1040fffc 	beqz	v0,10002bfc <hf_recv+0x74>
10002c0c:	00000000 	nop
10002c10:	8e640000 	lw	a0,0(s3)
10002c14:	0c000df3 	jal	100037cc <hf_queue_get>
10002c18:	00002821 	move	a1,zero
10002c1c:	10400005 	beqz	v0,10002c34 <hf_recv+0xac>
10002c20:	00002021 	move	a0,zero
10002c24:	9443000e 	lhu	v1,14(v0)
10002c28:	00000000 	nop
10002c2c:	1074000e 	beq	v1,s4,10002c68 <hf_recv+0xe0>
10002c30:	00000000 	nop
10002c34:	0c00007b 	jal	100001ec <_interrupt_set>
10002c38:	00000000 	nop
10002c3c:	8e640000 	lw	a0,0(s3)
10002c40:	0c000ddb 	jal	1000376c <hf_queue_remhead>
10002c44:	0040a821 	move	s5,v0
10002c48:	8e640000 	lw	a0,0(s3)
10002c4c:	0c000dc3 	jal	1000370c <hf_queue_addtail>
10002c50:	00402821 	move	a1,v0
10002c54:	0c00007b 	jal	100001ec <_interrupt_set>
10002c58:	02a02021 	move	a0,s5
10002c5c:	8e640000 	lw	a0,0(s3)
10002c60:	08000b00 	j	10002c00 <hf_recv+0x78>
10002c64:	00000000 	nop
10002c68:	9442000c 	lhu	v0,12(v0)
10002c6c:	00000000 	nop
10002c70:	1456fff0 	bne	v0,s6,10002c34 <hf_recv+0xac>
10002c74:	00000000 	nop
10002c78:	0c00007b 	jal	100001ec <_interrupt_set>
10002c7c:	00002021 	move	a0,zero
10002c80:	8e640000 	lw	a0,0(s3)
10002c84:	0c000ddb 	jal	1000376c <hf_queue_remhead>
10002c88:	0040a821 	move	s5,v0
10002c8c:	00409821 	move	s3,v0
10002c90:	0c00007b 	jal	100001ec <_interrupt_set>
10002c94:	02a02021 	move	a0,s5
10002c98:	96620004 	lhu	v0,4(s3)
10002c9c:	24030070 	li	v1,112
10002ca0:	a6220000 	sh	v0,0(s1)
10002ca4:	96620006 	lhu	v0,6(s3)
10002ca8:	00000000 	nop
10002cac:	a6020000 	sh	v0,0(s0)
10002cb0:	9662000a 	lhu	v0,10(s3)
10002cb4:	00000000 	nop
10002cb8:	0043001b 	divu	zero,v0,v1
10002cbc:	a6e20000 	sh	v0,0(s7)
10002cc0:	9675000c 	lhu	s5,12(s3)
10002cc4:	00001810 	mfhi	v1
10002cc8:	00002012 	mflo	a0
10002ccc:	146000a4 	bnez	v1,10002f60 <hf_recv+0x3d8>
10002cd0:	00000000 	nop
10002cd4:	3084ffff 	andi	a0,a0,0xffff
10002cd8:	afa40010 	sw	a0,16(sp)
10002cdc:	8fa40010 	lw	a0,16(sp)
10002ce0:	00000000 	nop
10002ce4:	2c830002 	sltiu	v1,a0,2
10002ce8:	146000a5 	bnez	v1,10002f80 <hf_recv+0x3f8>
10002cec:	3c051008 	lui	a1,0x1008
10002cf0:	8fa40010 	lw	a0,16(sp)
10002cf4:	26a3ffff 	addiu	v1,s5,-1
10002cf8:	00831021 	addu	v0,a0,v1
10002cfc:	afa3001c 	sw	v1,28(sp)
10002d00:	3c031008 	lui	v1,0x1008
10002d04:	afa30014 	sw	v1,20(sp)
10002d08:	3c041008 	lui	a0,0x1008
10002d0c:	8fa30020 	lw	v1,32(sp)
10002d10:	26b50001 	addiu	s5,s5,1
10002d14:	3042ffff 	andi	v0,v0,0xffff
10002d18:	24840660 	addiu	a0,a0,1632
10002d1c:	32b5ffff 	andi	s5,s5,0xffff
10002d20:	0240b021 	move	s6,s2
10002d24:	afa20018 	sw	v0,24(sp)
10002d28:	0000f021 	move	s8,zero
10002d2c:	00838021 	addu	s0,a0,v1
10002d30:	26630010 	addiu	v1,s3,16
10002d34:	02c01021 	move	v0,s6
10002d38:	24040038 	li	a0,56
10002d3c:	94650000 	lhu	a1,0(v1)
10002d40:	2484ffff 	addiu	a0,a0,-1
10002d44:	00052a02 	srl	a1,a1,0x8
10002d48:	a0450000 	sb	a1,0(v0)
10002d4c:	94650000 	lhu	a1,0(v1)
10002d50:	24630002 	addiu	v1,v1,2
10002d54:	a0450001 	sb	a1,1(v0)
10002d58:	1480fff8 	bnez	a0,10002d3c <hf_recv+0x1b4>
10002d5c:	24420002 	addiu	v0,v0,2
10002d60:	0c00007b 	jal	100001ec <_interrupt_set>
10002d64:	00000000 	nop
10002d68:	8fa30014 	lw	v1,20(sp)
10002d6c:	00408821 	move	s1,v0
10002d70:	8c640704 	lw	a0,1796(v1)
10002d74:	0c000dc3 	jal	1000370c <hf_queue_addtail>
10002d78:	02602821 	move	a1,s3
10002d7c:	0c00007b 	jal	100001ec <_interrupt_set>
10002d80:	02202021 	move	a0,s1
10002d84:	24110202 	li	s1,514
10002d88:	8e040000 	lw	a0,0(s0)
10002d8c:	0c000dc0 	jal	10003700 <hf_queue_count>
10002d90:	00000000 	nop
10002d94:	1040fffc 	beqz	v0,10002d88 <hf_recv+0x200>
10002d98:	00000000 	nop
10002d9c:	8e040000 	lw	a0,0(s0)
10002da0:	0c000df3 	jal	100037cc <hf_queue_get>
10002da4:	00002821 	move	a1,zero
10002da8:	2631ffff 	addiu	s1,s1,-1
10002dac:	10400005 	beqz	v0,10002dc4 <hf_recv+0x23c>
10002db0:	00002021 	move	a0,zero
10002db4:	9443000e 	lhu	v1,14(v0)
10002db8:	00000000 	nop
10002dbc:	10740021 	beq	v1,s4,10002e44 <hf_recv+0x2bc>
10002dc0:	00000000 	nop
10002dc4:	0c00007b 	jal	100001ec <_interrupt_set>
10002dc8:	00000000 	nop
10002dcc:	8e040000 	lw	a0,0(s0)
10002dd0:	0c000ddb 	jal	1000376c <hf_queue_remhead>
10002dd4:	00409821 	move	s3,v0
10002dd8:	8e040000 	lw	a0,0(s0)
10002ddc:	0c000dc3 	jal	1000370c <hf_queue_addtail>
10002de0:	00402821 	move	a1,v0
10002de4:	0c00007b 	jal	100001ec <_interrupt_set>
10002de8:	02602021 	move	a0,s3
10002dec:	1620ffe6 	bnez	s1,10002d88 <hf_recv+0x200>
10002df0:	00000000 	nop
10002df4:	0c00007b 	jal	100001ec <_interrupt_set>
10002df8:	00002021 	move	a0,zero
10002dfc:	8e040000 	lw	a0,0(s0)
10002e00:	0c000ddb 	jal	1000376c <hf_queue_remhead>
10002e04:	00408821 	move	s1,v0
10002e08:	02202021 	move	a0,s1
10002e0c:	0c00007b 	jal	100001ec <_interrupt_set>
10002e10:	00409821 	move	s3,v0
10002e14:	8fa30018 	lw	v1,24(sp)
10002e18:	00000000 	nop
10002e1c:	12a30019 	beq	s5,v1,10002e84 <hf_recv+0x2fc>
10002e20:	00000000 	nop
10002e24:	9663000c 	lhu	v1,12(s3)
10002e28:	26a20001 	addiu	v0,s5,1
10002e2c:	10750002 	beq	v1,s5,10002e38 <hf_recv+0x2b0>
10002e30:	3042ffff 	andi	v0,v0,0xffff
10002e34:	241eff34 	li	s8,-204
10002e38:	26d60070 	addiu	s6,s6,112
10002e3c:	08000b4c 	j	10002d30 <hf_recv+0x1a8>
10002e40:	0040a821 	move	s5,v0
10002e44:	9442000c 	lhu	v0,12(v0)
10002e48:	00000000 	nop
10002e4c:	1455ffdd 	bne	v0,s5,10002dc4 <hf_recv+0x23c>
10002e50:	00000000 	nop
10002e54:	0c00007b 	jal	100001ec <_interrupt_set>
10002e58:	00002021 	move	a0,zero
10002e5c:	8e040000 	lw	a0,0(s0)
10002e60:	0c000ddb 	jal	1000376c <hf_queue_remhead>
10002e64:	00408821 	move	s1,v0
10002e68:	02202021 	move	a0,s1
10002e6c:	0c00007b 	jal	100001ec <_interrupt_set>
10002e70:	00409821 	move	s3,v0
10002e74:	8fa30018 	lw	v1,24(sp)
10002e78:	00000000 	nop
10002e7c:	16a3ffe9 	bne	s5,v1,10002e24 <hf_recv+0x29c>
10002e80:	00000000 	nop
10002e84:	8fa30010 	lw	v1,16(sp)
10002e88:	8fa5001c 	lw	a1,28(sp)
10002e8c:	2462fffe 	addiu	v0,v1,-2
10002e90:	3042ffff 	andi	v0,v0,0xffff
10002e94:	00a32021 	addu	a0,a1,v1
10002e98:	24420001 	addiu	v0,v0,1
10002e9c:	9665000c 	lhu	a1,12(s3)
10002ea0:	00021900 	sll	v1,v0,0x4
10002ea4:	3084ffff 	andi	a0,a0,0xffff
10002ea8:	000211c0 	sll	v0,v0,0x7
10002eac:	00431823 	subu	v1,v0,v1
10002eb0:	96e20000 	lhu	v0,0(s7)
10002eb4:	10a40002 	beq	a1,a0,10002ec0 <hf_recv+0x338>
10002eb8:	00000000 	nop
10002ebc:	241eff34 	li	s8,-204
10002ec0:	26640010 	addiu	a0,s3,16
10002ec4:	02439021 	addu	s2,s2,v1
10002ec8:	08000bbf 	j	10002efc <hf_recv+0x374>
10002ecc:	2465006e 	addiu	a1,v1,110
10002ed0:	94820000 	lhu	v0,0(a0)
10002ed4:	00000000 	nop
10002ed8:	00021202 	srl	v0,v0,0x8
10002edc:	a2420000 	sb	v0,0(s2)
10002ee0:	94820000 	lhu	v0,0(a0)
10002ee4:	24840002 	addiu	a0,a0,2
10002ee8:	a2420001 	sb	v0,1(s2)
10002eec:	10650006 	beq	v1,a1,10002f08 <hf_recv+0x380>
10002ef0:	26520002 	addiu	s2,s2,2
10002ef4:	96e20000 	lhu	v0,0(s7)
10002ef8:	24630002 	addiu	v1,v1,2
10002efc:	0062102a 	slt	v0,v1,v0
10002f00:	1440fff3 	bnez	v0,10002ed0 <hf_recv+0x348>
10002f04:	00000000 	nop
10002f08:	0c00007b 	jal	100001ec <_interrupt_set>
10002f0c:	00002021 	move	a0,zero
10002f10:	8fa30014 	lw	v1,20(sp)
10002f14:	00408021 	move	s0,v0
10002f18:	8c640704 	lw	a0,1796(v1)
10002f1c:	0c000dc3 	jal	1000370c <hf_queue_addtail>
10002f20:	02602821 	move	a1,s3
10002f24:	0c00007b 	jal	100001ec <_interrupt_set>
10002f28:	02002021 	move	a0,s0
10002f2c:	8fbf004c 	lw	ra,76(sp)
10002f30:	03c01021 	move	v0,s8
10002f34:	8fb70044 	lw	s7,68(sp)
10002f38:	8fbe0048 	lw	s8,72(sp)
10002f3c:	8fb60040 	lw	s6,64(sp)
10002f40:	8fb5003c 	lw	s5,60(sp)
10002f44:	8fb40038 	lw	s4,56(sp)
10002f48:	8fb30034 	lw	s3,52(sp)
10002f4c:	8fb20030 	lw	s2,48(sp)
10002f50:	8fb1002c 	lw	s1,44(sp)
10002f54:	8fb00028 	lw	s0,40(sp)
10002f58:	03e00008 	jr	ra
10002f5c:	27bd0050 	addiu	sp,sp,80
10002f60:	24840001 	addiu	a0,a0,1
10002f64:	3084ffff 	andi	a0,a0,0xffff
10002f68:	afa40010 	sw	a0,16(sp)
10002f6c:	8fa40010 	lw	a0,16(sp)
10002f70:	00000000 	nop
10002f74:	2c830002 	sltiu	v1,a0,2
10002f78:	1060ff5e 	beqz	v1,10002cf4 <hf_recv+0x16c>
10002f7c:	3c051008 	lui	a1,0x1008
10002f80:	00001821 	move	v1,zero
10002f84:	0000f021 	move	s8,zero
10002f88:	08000bb0 	j	10002ec0 <hf_recv+0x338>
10002f8c:	afa50014 	sw	a1,20(sp)
10002f90:	08000bcb 	j	10002f2c <hf_recv+0x3a4>
10002f94:	241eff32 	li	s8,-206

10002f98 <hf_send>:
10002f98:	27bdff30 	addiu	sp,sp,-208
10002f9c:	97a300e2 	lhu	v1,226(sp)
10002fa0:	3084ffff 	andi	a0,a0,0xffff
10002fa4:	afb600c0 	sw	s6,192(sp)
10002fa8:	afb100ac 	sw	s1,172(sp)
10002fac:	afb000a8 	sw	s0,168(sp)
10002fb0:	30b1ffff 	andi	s1,a1,0xffff
10002fb4:	afa30094 	sw	v1,148(sp)
10002fb8:	afa400a4 	sw	a0,164(sp)
10002fbc:	afbf00cc 	sw	ra,204(sp)
10002fc0:	afbe00c8 	sw	s8,200(sp)
10002fc4:	afb700c4 	sw	s7,196(sp)
10002fc8:	afb500bc 	sw	s5,188(sp)
10002fcc:	afb400b8 	sw	s4,184(sp)
10002fd0:	afb300b4 	sw	s3,180(sp)
10002fd4:	afb200b0 	sw	s2,176(sp)
10002fd8:	00c08021 	move	s0,a2
10002fdc:	0c000fd9 	jal	10003f64 <hf_selfid>
10002fe0:	30f6ffff 	andi	s6,a3,0xffff
10002fe4:	3c031008 	lui	v1,0x1008
10002fe8:	00022880 	sll	a1,v0,0x2
10002fec:	24630660 	addiu	v1,v1,1632
10002ff0:	00a31821 	addu	v1,a1,v1
10002ff4:	8c630000 	lw	v1,0(v1)
10002ff8:	8fa400a4 	lw	a0,164(sp)
10002ffc:	106000c5 	beqz	v1,10003314 <hf_send+0x37c>
10003000:	24030070 	li	v1,112
10003004:	02c3001b 	divu	zero,s6,v1
10003008:	00001810 	mfhi	v1
1000300c:	00002812 	mflo	a1
10003010:	146000aa 	bnez	v1,100032bc <hf_send+0x324>
10003014:	24030003 	li	v1,3
10003018:	30a5ffff 	andi	a1,a1,0xffff
1000301c:	afa50090 	sw	a1,144(sp)
10003020:	8fa50090 	lw	a1,144(sp)
10003024:	0083001b 	divu	zero,a0,v1
10003028:	2ca30002 	sltiu	v1,a1,2
1000302c:	146000ab 	bnez	v1,100032dc <hf_send+0x344>
10003030:	00000000 	nop
10003034:	00021040 	sll	v0,v0,0x1
10003038:	afa2009c 	sw	v0,156(sp)
1000303c:	8fa5009c 	lw	a1,156(sp)
10003040:	3c021008 	lui	v0,0x1008
10003044:	24420624 	addiu	v0,v0,1572
10003048:	00001810 	mfhi	v1
1000304c:	00452821 	addu	a1,v0,a1
10003050:	afa200a0 	sw	v0,160(sp)
10003054:	00002012 	mflo	a0
10003058:	00031100 	sll	v0,v1,0x4
1000305c:	0200a821 	move	s5,s0
10003060:	24140001 	li	s4,1
10003064:	27b20090 	addiu	s2,sp,144
10003068:	27b70010 	addiu	s7,sp,16
1000306c:	afa50098 	sw	a1,152(sp)
10003070:	0082f025 	or	s8,a0,v0
10003074:	8fa30098 	lw	v1,152(sp)
10003078:	2404003e 	li	a0,62
1000307c:	94620000 	lhu	v0,0(v1)
10003080:	8fa30094 	lw	v1,148(sp)
10003084:	24050001 	li	a1,1
10003088:	a7a20016 	sh	v0,22(sp)
1000308c:	a7a3001e 	sh	v1,30(sp)
10003090:	a7be0010 	sh	s8,16(sp)
10003094:	a7a40012 	sh	a0,18(sp)
10003098:	a7a50014 	sh	a1,20(sp)
1000309c:	a7b10018 	sh	s1,24(sp)
100030a0:	a7b6001a 	sh	s6,26(sp)
100030a4:	a7b4001c 	sh	s4,28(sp)
100030a8:	27a30020 	addiu	v1,sp,32
100030ac:	02a01021 	move	v0,s5
100030b0:	90440000 	lbu	a0,0(v0)
100030b4:	90450001 	lbu	a1,1(v0)
100030b8:	00042200 	sll	a0,a0,0x8
100030bc:	00852025 	or	a0,a0,a1
100030c0:	a4640000 	sh	a0,0(v1)
100030c4:	24630002 	addiu	v1,v1,2
100030c8:	1643fff9 	bne	s2,v1,100030b0 <hf_send+0x118>
100030cc:	24420002 	addiu	v0,v0,2
100030d0:	0c0009ac 	jal	100026b0 <_ni_status>
100030d4:	00000000 	nop
100030d8:	30420001 	andi	v0,v0,0x1
100030dc:	1040fffc 	beqz	v0,100030d0 <hf_send+0x138>
100030e0:	00000000 	nop
100030e4:	0c00007b 	jal	100001ec <_interrupt_set>
100030e8:	00002021 	move	a0,zero
100030ec:	0c0009ac 	jal	100026b0 <_ni_status>
100030f0:	00409821 	move	s3,v0
100030f4:	30420001 	andi	v0,v0,0x1
100030f8:	1440000a 	bnez	v0,10003124 <hf_send+0x18c>
100030fc:	02602021 	move	a0,s3
10003100:	0c00007b 	jal	100001ec <_interrupt_set>
10003104:	00000000 	nop
10003108:	0c0009ac 	jal	100026b0 <_ni_status>
1000310c:	00000000 	nop
10003110:	30420001 	andi	v0,v0,0x1
10003114:	1040ffee 	beqz	v0,100030d0 <hf_send+0x138>
10003118:	00000000 	nop
1000311c:	08000c39 	j	100030e4 <hf_send+0x14c>
10003120:	00000000 	nop
10003124:	02e01021 	move	v0,s7
10003128:	94440000 	lhu	a0,0(v0)
1000312c:	24420002 	addiu	v0,v0,2
10003130:	0c0009b4 	jal	100026d0 <_ni_write>
10003134:	afa200a4 	sw	v0,164(sp)
10003138:	8fa200a4 	lw	v0,164(sp)
1000313c:	00000000 	nop
10003140:	1642fff9 	bne	s2,v0,10003128 <hf_send+0x190>
10003144:	00000000 	nop
10003148:	0c00007b 	jal	100001ec <_interrupt_set>
1000314c:	02602021 	move	a0,s3
10003150:	26940001 	addiu	s4,s4,1
10003154:	8fa50090 	lw	a1,144(sp)
10003158:	3294ffff 	andi	s4,s4,0xffff
1000315c:	1685ffc5 	bne	s4,a1,10003074 <hf_send+0xdc>
10003160:	26b50070 	addiu	s5,s5,112
10003164:	2682fffe 	addiu	v0,s4,-2
10003168:	3042ffff 	andi	v0,v0,0xffff
1000316c:	24420001 	addiu	v0,v0,1
10003170:	00021900 	sll	v1,v0,0x4
10003174:	000211c0 	sll	v0,v0,0x7
10003178:	00432823 	subu	a1,v0,v1
1000317c:	8fa300a0 	lw	v1,160(sp)
10003180:	8fa4009c 	lw	a0,156(sp)
10003184:	a7be0010 	sh	s8,16(sp)
10003188:	00641021 	addu	v0,v1,a0
1000318c:	2403003e 	li	v1,62
10003190:	a7a30012 	sh	v1,18(sp)
10003194:	24030001 	li	v1,1
10003198:	94420000 	lhu	v0,0(v0)
1000319c:	a7a30014 	sh	v1,20(sp)
100031a0:	8fa30094 	lw	v1,148(sp)
100031a4:	a7a20016 	sh	v0,22(sp)
100031a8:	a7b10018 	sh	s1,24(sp)
100031ac:	a7b6001a 	sh	s6,26(sp)
100031b0:	a7b4001c 	sh	s4,28(sp)
100031b4:	a7a3001e 	sh	v1,30(sp)
100031b8:	02058021 	addu	s0,s0,a1
100031bc:	24020008 	li	v0,8
100031c0:	02e53823 	subu	a3,s7,a1
100031c4:	08000c7c 	j	100031f0 <hf_send+0x258>
100031c8:	24080040 	li	t0,64
100031cc:	92030000 	lbu	v1,0(s0)
100031d0:	92060001 	lbu	a2,1(s0)
100031d4:	00031a00 	sll	v1,v1,0x8
100031d8:	00661825 	or	v1,v1,a2
100031dc:	24420001 	addiu	v0,v0,1
100031e0:	a4830010 	sh	v1,16(a0)
100031e4:	24a50002 	addiu	a1,a1,2
100031e8:	1048000b 	beq	v0,t0,10003218 <hf_send+0x280>
100031ec:	26100002 	addiu	s0,s0,2
100031f0:	00b6182a 	slt	v1,a1,s6
100031f4:	1460fff5 	bnez	v1,100031cc <hf_send+0x234>
100031f8:	00e52021 	addu	a0,a3,a1
100031fc:	00021040 	sll	v0,v0,0x1
10003200:	02e21021 	addu	v0,s7,v0
10003204:	2403dead 	li	v1,-8531
10003208:	a4430000 	sh	v1,0(v0)
1000320c:	24420002 	addiu	v0,v0,2
10003210:	1642fffd 	bne	s2,v0,10003208 <hf_send+0x270>
10003214:	00000000 	nop
10003218:	0c0009ac 	jal	100026b0 <_ni_status>
1000321c:	00000000 	nop
10003220:	30420001 	andi	v0,v0,0x1
10003224:	1040fffc 	beqz	v0,10003218 <hf_send+0x280>
10003228:	00000000 	nop
1000322c:	0c00007b 	jal	100001ec <_interrupt_set>
10003230:	00002021 	move	a0,zero
10003234:	0c0009ac 	jal	100026b0 <_ni_status>
10003238:	00408021 	move	s0,v0
1000323c:	30420001 	andi	v0,v0,0x1
10003240:	1440000a 	bnez	v0,1000326c <hf_send+0x2d4>
10003244:	02002021 	move	a0,s0
10003248:	0c00007b 	jal	100001ec <_interrupt_set>
1000324c:	00000000 	nop
10003250:	0c0009ac 	jal	100026b0 <_ni_status>
10003254:	00000000 	nop
10003258:	30420001 	andi	v0,v0,0x1
1000325c:	1040ffee 	beqz	v0,10003218 <hf_send+0x280>
10003260:	00000000 	nop
10003264:	08000c8b 	j	1000322c <hf_send+0x294>
10003268:	00000000 	nop
1000326c:	96e40000 	lhu	a0,0(s7)
10003270:	0c0009b4 	jal	100026d0 <_ni_write>
10003274:	26f70002 	addiu	s7,s7,2
10003278:	1657fffc 	bne	s2,s7,1000326c <hf_send+0x2d4>
1000327c:	00000000 	nop
10003280:	0c00007b 	jal	100001ec <_interrupt_set>
10003284:	02002021 	move	a0,s0
10003288:	00001021 	move	v0,zero
1000328c:	8fbf00cc 	lw	ra,204(sp)
10003290:	8fbe00c8 	lw	s8,200(sp)
10003294:	8fb700c4 	lw	s7,196(sp)
10003298:	8fb600c0 	lw	s6,192(sp)
1000329c:	8fb500bc 	lw	s5,188(sp)
100032a0:	8fb400b8 	lw	s4,184(sp)
100032a4:	8fb300b4 	lw	s3,180(sp)
100032a8:	8fb200b0 	lw	s2,176(sp)
100032ac:	8fb100ac 	lw	s1,172(sp)
100032b0:	8fb000a8 	lw	s0,168(sp)
100032b4:	03e00008 	jr	ra
100032b8:	27bd00d0 	addiu	sp,sp,208
100032bc:	24a50001 	addiu	a1,a1,1
100032c0:	30a5ffff 	andi	a1,a1,0xffff
100032c4:	afa50090 	sw	a1,144(sp)
100032c8:	8fa50090 	lw	a1,144(sp)
100032cc:	0083001b 	divu	zero,a0,v1
100032d0:	2ca30002 	sltiu	v1,a1,2
100032d4:	1060ff57 	beqz	v1,10003034 <hf_send+0x9c>
100032d8:	00000000 	nop
100032dc:	00021040 	sll	v0,v0,0x1
100032e0:	afa2009c 	sw	v0,156(sp)
100032e4:	3c021008 	lui	v0,0x1008
100032e8:	24420624 	addiu	v0,v0,1572
100032ec:	00001810 	mfhi	v1
100032f0:	afa200a0 	sw	v0,160(sp)
100032f4:	00031100 	sll	v0,v1,0x4
100032f8:	00002012 	mflo	a0
100032fc:	24140001 	li	s4,1
10003300:	00002821 	move	a1,zero
10003304:	27b20090 	addiu	s2,sp,144
10003308:	27b70010 	addiu	s7,sp,16
1000330c:	08000c5f 	j	1000317c <hf_send+0x1e4>
10003310:	0082f025 	or	s8,a0,v0
10003314:	08000ca3 	j	1000328c <hf_send+0x2f4>
10003318:	2402ff32 	li	v0,-206

1000331c <hf_recvack>:
1000331c:	27bdffd8 	addiu	sp,sp,-40
10003320:	97a2003a 	lhu	v0,58(sp)
10003324:	afb20020 	sw	s2,32(sp)
10003328:	afb1001c 	sw	s1,28(sp)
1000332c:	afb00018 	sw	s0,24(sp)
10003330:	afbf0024 	sw	ra,36(sp)
10003334:	00809021 	move	s2,a0
10003338:	00a08821 	move	s1,a1
1000333c:	0c000ae2 	jal	10002b88 <hf_recv>
10003340:	afa20010 	sw	v0,16(sp)
10003344:	14400009 	bnez	v0,1000336c <hf_recvack+0x50>
10003348:	00408021 	move	s0,v0
1000334c:	96440000 	lhu	a0,0(s2)
10003350:	96250000 	lhu	a1,0(s1)
10003354:	3c061000 	lui	a2,0x1000
10003358:	3402ffff 	li	v0,0xffff
1000335c:	24c64a80 	addiu	a2,a2,19072
10003360:	24070003 	li	a3,3
10003364:	0c000be6 	jal	10002f98 <hf_send>
10003368:	afa20010 	sw	v0,16(sp)
1000336c:	8fbf0024 	lw	ra,36(sp)
10003370:	02001021 	move	v0,s0
10003374:	8fb20020 	lw	s2,32(sp)
10003378:	8fb1001c 	lw	s1,28(sp)
1000337c:	8fb00018 	lw	s0,24(sp)
10003380:	03e00008 	jr	ra
10003384:	27bd0028 	addiu	sp,sp,40

10003388 <hf_sendack>:
10003388:	27bdffc0 	addiu	sp,sp,-64
1000338c:	97a30052 	lhu	v1,82(sp)
10003390:	00e01021 	move	v0,a3
10003394:	3084ffff 	andi	a0,a0,0xffff
10003398:	30a5ffff 	andi	a1,a1,0xffff
1000339c:	30e7ffff 	andi	a3,a3,0xffff
100033a0:	afb2002c 	sw	s2,44(sp)
100033a4:	afb10028 	sw	s1,40(sp)
100033a8:	afbf003c 	sw	ra,60(sp)
100033ac:	afb50038 	sw	s5,56(sp)
100033b0:	afb40034 	sw	s4,52(sp)
100033b4:	afb30030 	sw	s3,48(sp)
100033b8:	afb00024 	sw	s0,36(sp)
100033bc:	8fb10054 	lw	s1,84(sp)
100033c0:	a7a2004c 	sh	v0,76(sp)
100033c4:	0c000be6 	jal	10002f98 <hf_send>
100033c8:	afa30010 	sw	v1,16(sp)
100033cc:	1040000b 	beqz	v0,100033fc <hf_sendack+0x74>
100033d0:	00409021 	move	s2,v0
100033d4:	8fbf003c 	lw	ra,60(sp)
100033d8:	02401021 	move	v0,s2
100033dc:	8fb50038 	lw	s5,56(sp)
100033e0:	8fb40034 	lw	s4,52(sp)
100033e4:	8fb30030 	lw	s3,48(sp)
100033e8:	8fb2002c 	lw	s2,44(sp)
100033ec:	8fb10028 	lw	s1,40(sp)
100033f0:	8fb00024 	lw	s0,36(sp)
100033f4:	03e00008 	jr	ra
100033f8:	27bd0040 	addiu	sp,sp,64
100033fc:	0c000fd9 	jal	10003f64 <hf_selfid>
10003400:	3414ffff 	li	s4,0xffff
10003404:	0c0004b1 	jal	100012c4 <_read_us>
10003408:	00408021 	move	s0,v0
1000340c:	00602821 	move	a1,v1
10003410:	00402021 	move	a0,v0
10003414:	240703e8 	li	a3,1000
10003418:	0c000756 	jal	10001d58 <__udivdi3>
1000341c:	00003021 	move	a2,zero
10003420:	3c021008 	lui	v0,0x1008
10003424:	00108080 	sll	s0,s0,0x2
10003428:	24420660 	addiu	v0,v0,1632
1000342c:	00609821 	move	s3,v1
10003430:	00508021 	addu	s0,v0,s0
10003434:	24150003 	li	s5,3
10003438:	8e040000 	lw	a0,0(s0)
1000343c:	0c000dc0 	jal	10003700 <hf_queue_count>
10003440:	00000000 	nop
10003444:	1040000a 	beqz	v0,10003470 <hf_sendack+0xe8>
10003448:	00002821 	move	a1,zero
1000344c:	8e040000 	lw	a0,0(s0)
10003450:	0c000df3 	jal	100037cc <hf_queue_get>
10003454:	00000000 	nop
10003458:	10400005 	beqz	v0,10003470 <hf_sendack+0xe8>
1000345c:	00000000 	nop
10003460:	9443000e 	lhu	v1,14(v0)
10003464:	00000000 	nop
10003468:	10740010 	beq	v1,s4,100034ac <hf_sendack+0x124>
1000346c:	00000000 	nop
10003470:	0c0004b1 	jal	100012c4 <_read_us>
10003474:	00000000 	nop
10003478:	00402021 	move	a0,v0
1000347c:	00602821 	move	a1,v1
10003480:	240703e8 	li	a3,1000
10003484:	0c000756 	jal	10001d58 <__udivdi3>
10003488:	00003021 	move	a2,zero
1000348c:	00732023 	subu	a0,v1,s3
10003490:	0064182b 	sltu	v1,v1,a0
10003494:	14430003 	bne	v0,v1,100034a4 <hf_sendack+0x11c>
10003498:	0224202b 	sltu	a0,s1,a0
1000349c:	1080ffe6 	beqz	a0,10003438 <hf_sendack+0xb0>
100034a0:	00000000 	nop
100034a4:	08000cf5 	j	100033d4 <hf_sendack+0x4c>
100034a8:	2412ff35 	li	s2,-203
100034ac:	9442000a 	lhu	v0,10(v0)
100034b0:	00000000 	nop
100034b4:	1455ffee 	bne	v0,s5,10003470 <hf_sendack+0xe8>
100034b8:	27a50018 	addiu	a1,sp,24
100034bc:	27a4001a 	addiu	a0,sp,26
100034c0:	27a6001c 	addiu	a2,sp,28
100034c4:	27a7004c 	addiu	a3,sp,76
100034c8:	0c000ae2 	jal	10002b88 <hf_recv>
100034cc:	afb40010 	sw	s4,16(sp)
100034d0:	08000cf5 	j	100033d4 <hf_sendack+0x4c>
100034d4:	00000000 	nop

100034d8 <panic>:
100034d8:	27bdffe8 	addiu	sp,sp,-24
100034dc:	afb00010 	sw	s0,16(sp)
100034e0:	00808021 	move	s0,a0
100034e4:	afbf0014 	sw	ra,20(sp)
100034e8:	0c00007b 	jal	100001ec <_interrupt_set>
100034ec:	00002021 	move	a0,zero
100034f0:	3c021008 	lui	v0,0x1008
100034f4:	944506d8 	lhu	a1,1752(v0)
100034f8:	3c041000 	lui	a0,0x1000
100034fc:	0c00056f 	jal	100015bc <kprintf>
10003500:	24844a84 	addiu	a0,a0,19076
10003504:	2e02000f 	sltiu	v0,s0,15
10003508:	1440000b 	bnez	v0,10003538 <panic+0x60>
1000350c:	3c021000 	lui	v0,0x1000
10003510:	3c041000 	lui	a0,0x1000
10003514:	0c00056f 	jal	100015bc <kprintf>
10003518:	24844c1c 	addiu	a0,a0,19484
1000351c:	3c041000 	lui	a0,0x1000
10003520:	0c0006ff 	jal	10001bfc <printf>
10003524:	24844c2c 	addiu	a0,a0,19500
10003528:	0c0004ed 	jal	100013b4 <_panic>
1000352c:	00000000 	nop
10003530:	08000d4c 	j	10003530 <panic+0x58>
10003534:	00000000 	nop
10003538:	24424c40 	addiu	v0,v0,19520
1000353c:	00108080 	sll	s0,s0,0x2
10003540:	00508021 	addu	s0,v0,s0
10003544:	8e020000 	lw	v0,0(s0)
10003548:	00000000 	nop
1000354c:	00400008 	jr	v0
10003550:	00000000 	nop
10003554:	3c041000 	lui	a0,0x1000
10003558:	0c00056f 	jal	100015bc <kprintf>
1000355c:	24844ae0 	addiu	a0,a0,19168
10003560:	08000d48 	j	10003520 <panic+0x48>
10003564:	3c041000 	lui	a0,0x1000
10003568:	3c041000 	lui	a0,0x1000
1000356c:	0c00056f 	jal	100015bc <kprintf>
10003570:	24844c08 	addiu	a0,a0,19464
10003574:	08000d48 	j	10003520 <panic+0x48>
10003578:	3c041000 	lui	a0,0x1000
1000357c:	3c041000 	lui	a0,0x1000
10003580:	0c00056f 	jal	100015bc <kprintf>
10003584:	24844bec 	addiu	a0,a0,19436
10003588:	08000d48 	j	10003520 <panic+0x48>
1000358c:	3c041000 	lui	a0,0x1000
10003590:	3c041000 	lui	a0,0x1000
10003594:	0c00056f 	jal	100015bc <kprintf>
10003598:	24844bc8 	addiu	a0,a0,19400
1000359c:	08000d48 	j	10003520 <panic+0x48>
100035a0:	3c041000 	lui	a0,0x1000
100035a4:	3c041000 	lui	a0,0x1000
100035a8:	0c00056f 	jal	100015bc <kprintf>
100035ac:	24844ba8 	addiu	a0,a0,19368
100035b0:	08000d48 	j	10003520 <panic+0x48>
100035b4:	3c041000 	lui	a0,0x1000
100035b8:	3c041000 	lui	a0,0x1000
100035bc:	0c00056f 	jal	100015bc <kprintf>
100035c0:	24844b88 	addiu	a0,a0,19336
100035c4:	08000d48 	j	10003520 <panic+0x48>
100035c8:	3c041000 	lui	a0,0x1000
100035cc:	3c041000 	lui	a0,0x1000
100035d0:	0c00056f 	jal	100015bc <kprintf>
100035d4:	24844b70 	addiu	a0,a0,19312
100035d8:	08000d48 	j	10003520 <panic+0x48>
100035dc:	3c041000 	lui	a0,0x1000
100035e0:	3c041000 	lui	a0,0x1000
100035e4:	0c00056f 	jal	100015bc <kprintf>
100035e8:	24844b3c 	addiu	a0,a0,19260
100035ec:	08000d48 	j	10003520 <panic+0x48>
100035f0:	3c041000 	lui	a0,0x1000
100035f4:	3c041000 	lui	a0,0x1000
100035f8:	0c00056f 	jal	100015bc <kprintf>
100035fc:	24844b54 	addiu	a0,a0,19284
10003600:	08000d48 	j	10003520 <panic+0x48>
10003604:	3c041000 	lui	a0,0x1000
10003608:	3c041000 	lui	a0,0x1000
1000360c:	0c00056f 	jal	100015bc <kprintf>
10003610:	24844b24 	addiu	a0,a0,19236
10003614:	08000d48 	j	10003520 <panic+0x48>
10003618:	3c041000 	lui	a0,0x1000
1000361c:	3c041000 	lui	a0,0x1000
10003620:	0c00056f 	jal	100015bc <kprintf>
10003624:	24844b14 	addiu	a0,a0,19220
10003628:	08000d48 	j	10003520 <panic+0x48>
1000362c:	3c041000 	lui	a0,0x1000
10003630:	3c041000 	lui	a0,0x1000
10003634:	0c00056f 	jal	100015bc <kprintf>
10003638:	24844af4 	addiu	a0,a0,19188
1000363c:	08000d48 	j	10003520 <panic+0x48>
10003640:	3c041000 	lui	a0,0x1000
10003644:	3c041000 	lui	a0,0x1000
10003648:	0c00056f 	jal	100015bc <kprintf>
1000364c:	24844ad0 	addiu	a0,a0,19152
10003650:	08000d48 	j	10003520 <panic+0x48>
10003654:	3c041000 	lui	a0,0x1000
10003658:	3c041000 	lui	a0,0x1000
1000365c:	0c00056f 	jal	100015bc <kprintf>
10003660:	24844ab4 	addiu	a0,a0,19124
10003664:	08000d48 	j	10003520 <panic+0x48>
10003668:	3c041000 	lui	a0,0x1000
1000366c:	3c041000 	lui	a0,0x1000
10003670:	0c00056f 	jal	100015bc <kprintf>
10003674:	24844aa0 	addiu	a0,a0,19104
10003678:	08000d48 	j	10003520 <panic+0x48>
1000367c:	3c041000 	lui	a0,0x1000

10003680 <hf_schedlock>:
10003680:	2c840001 	sltiu	a0,a0,1
10003684:	3c021008 	lui	v0,0x1008
10003688:	03e00008 	jr	ra
1000368c:	a44406f4 	sh	a0,1780(v0)

10003690 <hf_queue_create>:
10003690:	27bdffe0 	addiu	sp,sp,-32
10003694:	afb10018 	sw	s1,24(sp)
10003698:	00808821 	move	s1,a0
1000369c:	afb00014 	sw	s0,20(sp)
100036a0:	afbf001c 	sw	ra,28(sp)
100036a4:	0c00084a 	jal	10002128 <hf_malloc>
100036a8:	24040014 	li	a0,20
100036ac:	1040000a 	beqz	v0,100036d8 <hf_queue_create+0x48>
100036b0:	00408021 	move	s0,v0
100036b4:	26240001 	addiu	a0,s1,1
100036b8:	ac440000 	sw	a0,0(v0)
100036bc:	0c00084a 	jal	10002128 <hf_malloc>
100036c0:	00042080 	sll	a0,a0,0x2
100036c4:	1040000a 	beqz	v0,100036f0 <hf_queue_create+0x60>
100036c8:	ae020010 	sw	v0,16(s0)
100036cc:	ae00000c 	sw	zero,12(s0)
100036d0:	ae000008 	sw	zero,8(s0)
100036d4:	ae000004 	sw	zero,4(s0)
100036d8:	8fbf001c 	lw	ra,28(sp)
100036dc:	02001021 	move	v0,s0
100036e0:	8fb10018 	lw	s1,24(sp)
100036e4:	8fb00014 	lw	s0,20(sp)
100036e8:	03e00008 	jr	ra
100036ec:	27bd0020 	addiu	sp,sp,32
100036f0:	0c00082f 	jal	100020bc <hf_free>
100036f4:	02002021 	move	a0,s0
100036f8:	08000db6 	j	100036d8 <hf_queue_create+0x48>
100036fc:	00008021 	move	s0,zero

10003700 <hf_queue_count>:
10003700:	8c820004 	lw	v0,4(a0)
10003704:	03e00008 	jr	ra
10003708:	00000000 	nop

1000370c <hf_queue_addtail>:
1000370c:	8c820000 	lw	v0,0(a0)
10003710:	00000000 	nop
10003714:	10400011 	beqz	v0,1000375c <hf_queue_addtail+0x50>
10003718:	00000000 	nop
1000371c:	8c86000c 	lw	a2,12(a0)
10003720:	8c870008 	lw	a3,8(a0)
10003724:	24c30001 	addiu	v1,a2,1
10003728:	0062001a 	div	zero,v1,v0
1000372c:	00001810 	mfhi	v1
10003730:	10e3000c 	beq	a3,v1,10003764 <hf_queue_addtail+0x58>
10003734:	00063080 	sll	a2,a2,0x2
10003738:	8c820010 	lw	v0,16(a0)
1000373c:	8c870004 	lw	a3,4(a0)
10003740:	00463021 	addu	a2,v0,a2
10003744:	24e70001 	addiu	a3,a3,1
10003748:	acc50000 	sw	a1,0(a2)
1000374c:	00001021 	move	v0,zero
10003750:	ac83000c 	sw	v1,12(a0)
10003754:	03e00008 	jr	ra
10003758:	ac870004 	sw	a3,4(a0)
1000375c:	03e00008 	jr	ra
10003760:	2402ffff 	li	v0,-1
10003764:	03e00008 	jr	ra
10003768:	2402ffff 	li	v0,-1

1000376c <hf_queue_remhead>:
1000376c:	8c830000 	lw	v1,0(a0)
10003770:	00000000 	nop
10003774:	10600011 	beqz	v1,100037bc <hf_queue_remhead+0x50>
10003778:	00000000 	nop
1000377c:	8c820008 	lw	v0,8(a0)
10003780:	8c85000c 	lw	a1,12(a0)
10003784:	00000000 	nop
10003788:	1045000e 	beq	v0,a1,100037c4 <hf_queue_remhead+0x58>
1000378c:	24450001 	addiu	a1,v0,1
10003790:	00a3001a 	div	zero,a1,v1
10003794:	8c860010 	lw	a2,16(a0)
10003798:	8c850004 	lw	a1,4(a0)
1000379c:	00021080 	sll	v0,v0,0x2
100037a0:	00c21021 	addu	v0,a2,v0
100037a4:	24a5ffff 	addiu	a1,a1,-1
100037a8:	8c420000 	lw	v0,0(v0)
100037ac:	ac850004 	sw	a1,4(a0)
100037b0:	00001810 	mfhi	v1
100037b4:	03e00008 	jr	ra
100037b8:	ac830008 	sw	v1,8(a0)
100037bc:	03e00008 	jr	ra
100037c0:	00001021 	move	v0,zero
100037c4:	03e00008 	jr	ra
100037c8:	00001021 	move	v0,zero

100037cc <hf_queue_get>:
100037cc:	8c820000 	lw	v0,0(a0)
100037d0:	00000000 	nop
100037d4:	10400013 	beqz	v0,10003824 <hf_queue_get+0x58>
100037d8:	00000000 	nop
100037dc:	8c830004 	lw	v1,4(a0)
100037e0:	00000000 	nop
100037e4:	00a3182a 	slt	v1,a1,v1
100037e8:	1060000e 	beqz	v1,10003824 <hf_queue_get+0x58>
100037ec:	00000000 	nop
100037f0:	8c830008 	lw	v1,8(a0)
100037f4:	8c86000c 	lw	a2,12(a0)
100037f8:	00000000 	nop
100037fc:	1066000b 	beq	v1,a2,1000382c <hf_queue_get+0x60>
10003800:	00a32821 	addu	a1,a1,v1
10003804:	00a2001a 	div	zero,a1,v0
10003808:	8c830010 	lw	v1,16(a0)
1000380c:	00001010 	mfhi	v0
10003810:	00021080 	sll	v0,v0,0x2
10003814:	00621021 	addu	v0,v1,v0
10003818:	8c420000 	lw	v0,0(v0)
1000381c:	03e00008 	jr	ra
10003820:	00000000 	nop
10003824:	03e00008 	jr	ra
10003828:	00001021 	move	v0,zero
1000382c:	03e00008 	jr	ra
10003830:	00001021 	move	v0,zero

10003834 <hf_queue_swap>:
10003834:	8c830000 	lw	v1,0(a0)
10003838:	00000000 	nop
1000383c:	10600022 	beqz	v1,100038c8 <hf_queue_swap+0x94>
10003840:	00000000 	nop
10003844:	8c820004 	lw	v0,4(a0)
10003848:	00000000 	nop
1000384c:	00a2382a 	slt	a3,a1,v0
10003850:	10e0001d 	beqz	a3,100038c8 <hf_queue_swap+0x94>
10003854:	00000000 	nop
10003858:	00c2102a 	slt	v0,a2,v0
1000385c:	1040001a 	beqz	v0,100038c8 <hf_queue_swap+0x94>
10003860:	00000000 	nop
10003864:	8c820008 	lw	v0,8(a0)
10003868:	8c87000c 	lw	a3,12(a0)
1000386c:	00000000 	nop
10003870:	10470017 	beq	v0,a3,100038d0 <hf_queue_swap+0x9c>
10003874:	00c23021 	addu	a2,a2,v0
10003878:	00c3001a 	div	zero,a2,v1
1000387c:	00a22821 	addu	a1,a1,v0
10003880:	8c870010 	lw	a3,16(a0)
10003884:	00001021 	move	v0,zero
10003888:	00003010 	mfhi	a2
1000388c:	00063080 	sll	a2,a2,0x2
10003890:	00000000 	nop
10003894:	00a3001a 	div	zero,a1,v1
10003898:	00e62821 	addu	a1,a3,a2
1000389c:	8ca80000 	lw	t0,0(a1)
100038a0:	00001810 	mfhi	v1
100038a4:	00031880 	sll	v1,v1,0x2
100038a8:	00e33821 	addu	a3,a3,v1
100038ac:	8ce30000 	lw	v1,0(a3)
100038b0:	ace80000 	sw	t0,0(a3)
100038b4:	8c840010 	lw	a0,16(a0)
100038b8:	00000000 	nop
100038bc:	00863021 	addu	a2,a0,a2
100038c0:	03e00008 	jr	ra
100038c4:	acc30000 	sw	v1,0(a2)
100038c8:	03e00008 	jr	ra
100038cc:	2402ffff 	li	v0,-1
100038d0:	03e00008 	jr	ra
100038d4:	2402ffff 	li	v0,-1

100038d8 <run_queue_next>:
100038d8:	27bdffe0 	addiu	sp,sp,-32
100038dc:	afb00014 	sw	s0,20(sp)
100038e0:	3c101008 	lui	s0,0x1008
100038e4:	8e0406ec 	lw	a0,1772(s0)
100038e8:	afb10018 	sw	s1,24(sp)
100038ec:	afbf001c 	sw	ra,28(sp)
100038f0:	0c000ddb 	jal	1000376c <hf_queue_remhead>
100038f4:	3c111008 	lui	s1,0x1008
100038f8:	10400010 	beqz	v0,1000393c <run_queue_next+0x64>
100038fc:	ae2206dc 	sw	v0,1756(s1)
10003900:	8e0406ec 	lw	a0,1772(s0)
10003904:	0c000dc3 	jal	1000370c <hf_queue_addtail>
10003908:	00402821 	move	a1,v0
1000390c:	14400006 	bnez	v0,10003928 <run_queue_next+0x50>
10003910:	24040009 	li	a0,9
10003914:	8fbf001c 	lw	ra,28(sp)
10003918:	8fb10018 	lw	s1,24(sp)
1000391c:	8fb00014 	lw	s0,20(sp)
10003920:	03e00008 	jr	ra
10003924:	27bd0020 	addiu	sp,sp,32
10003928:	8fbf001c 	lw	ra,28(sp)
1000392c:	8fb10018 	lw	s1,24(sp)
10003930:	8fb00014 	lw	s0,20(sp)
10003934:	08000d36 	j	100034d8 <panic>
10003938:	27bd0020 	addiu	sp,sp,32
1000393c:	0c000d36 	jal	100034d8 <panic>
10003940:	24040005 	li	a0,5
10003944:	8e2206dc 	lw	v0,1756(s1)
10003948:	08000e40 	j	10003900 <run_queue_next+0x28>
1000394c:	00000000 	nop

10003950 <dispatch_isr>:
10003950:	27bdffc8 	addiu	sp,sp,-56
10003954:	afbf0034 	sw	ra,52(sp)
10003958:	afb60030 	sw	s6,48(sp)
1000395c:	afb5002c 	sw	s5,44(sp)
10003960:	afb40028 	sw	s4,40(sp)
10003964:	afb30024 	sw	s3,36(sp)
10003968:	afb20020 	sw	s2,32(sp)
1000396c:	afb1001c 	sw	s1,28(sp)
10003970:	0c0004da 	jal	10001368 <_timer_reset>
10003974:	afb00018 	sw	s0,24(sp)
10003978:	3c021008 	lui	v0,0x1008
1000397c:	944206f4 	lhu	v0,1780(v0)
10003980:	00000000 	nop
10003984:	1440000b 	bnez	v0,100039b4 <dispatch_isr+0x64>
10003988:	3c141008 	lui	s4,0x1008
1000398c:	8fbf0034 	lw	ra,52(sp)
10003990:	8fb60030 	lw	s6,48(sp)
10003994:	8fb5002c 	lw	s5,44(sp)
10003998:	8fb40028 	lw	s4,40(sp)
1000399c:	8fb30024 	lw	s3,36(sp)
100039a0:	8fb20020 	lw	s2,32(sp)
100039a4:	8fb1001c 	lw	s1,28(sp)
100039a8:	8fb00018 	lw	s0,24(sp)
100039ac:	03e00008 	jr	ra
100039b0:	27bd0038 	addiu	sp,sp,56
100039b4:	968306d8 	lhu	v1,1752(s4)
100039b8:	3c131008 	lui	s3,0x1008
100039bc:	00032080 	sll	a0,v1,0x2
100039c0:	00031100 	sll	v0,v1,0x4
100039c4:	00821021 	addu	v0,a0,v0
100039c8:	00431823 	subu	v1,v0,v1
100039cc:	3c021000 	lui	v0,0x1000
100039d0:	000318c0 	sll	v1,v1,0x3
100039d4:	2442531c 	addiu	v0,v0,21276
100039d8:	00431021 	addu	v0,v0,v1
100039dc:	24440038 	addiu	a0,v0,56
100039e0:	0c00008f 	jal	1000023c <_context_save>
100039e4:	ae6206dc 	sw	v0,1756(s3)
100039e8:	1440ffe8 	bnez	v0,1000398c <dispatch_isr+0x3c>
100039ec:	24030002 	li	v1,2
100039f0:	8e6206dc 	lw	v0,1756(s3)
100039f4:	00000000 	nop
100039f8:	90440016 	lbu	a0,22(v0)
100039fc:	00000000 	nop
10003a00:	1083005a 	beq	a0,v1,10003b6c <dispatch_isr+0x21c>
10003a04:	24030001 	li	v1,1
10003a08:	8c42008c 	lw	v0,140(v0)
10003a0c:	00000000 	nop
10003a10:	8c430000 	lw	v1,0(v0)
10003a14:	3c02b00b 	lui	v0,0xb00b
10003a18:	3442b00b 	ori	v0,v0,0xb00b
10003a1c:	10620004 	beq	v1,v0,10003a30 <dispatch_isr+0xe0>
10003a20:	3c021008 	lui	v0,0x1008
10003a24:	0c000d36 	jal	100034d8 <panic>
10003a28:	24040002 	li	a0,2
10003a2c:	3c021008 	lui	v0,0x1008
10003a30:	944206e4 	lhu	v0,1764(v0)
10003a34:	00000000 	nop
10003a38:	10400042 	beqz	v0,10003b44 <dispatch_isr+0x1f4>
10003a3c:	24040003 	li	a0,3
10003a40:	3c111008 	lui	s1,0x1008
10003a44:	8e2406f8 	lw	a0,1784(s1)
10003a48:	0c000dc0 	jal	10003700 <hf_queue_count>
10003a4c:	00000000 	nop
10003a50:	18400024 	blez	v0,10003ae4 <dispatch_isr+0x194>
10003a54:	00409021 	move	s2,v0
10003a58:	00008021 	move	s0,zero
10003a5c:	3c161008 	lui	s6,0x1008
10003a60:	08000ea2 	j	10003a88 <dispatch_isr+0x138>
10003a64:	3c151008 	lui	s5,0x1008
10003a68:	8ea406f0 	lw	a0,1776(s5)
10003a6c:	0c000dc3 	jal	1000370c <hf_queue_addtail>
10003a70:	00402821 	move	a1,v0
10003a74:	14400048 	bnez	v0,10003b98 <dispatch_isr+0x248>
10003a78:	00000000 	nop
10003a7c:	26100001 	addiu	s0,s0,1
10003a80:	12120018 	beq	s0,s2,10003ae4 <dispatch_isr+0x194>
10003a84:	00000000 	nop
10003a88:	8e2406f8 	lw	a0,1784(s1)
10003a8c:	0c000ddb 	jal	1000376c <hf_queue_remhead>
10003a90:	00000000 	nop
10003a94:	10400044 	beqz	v0,10003ba8 <dispatch_isr+0x258>
10003a98:	24040007 	li	a0,7
10003a9c:	8c43001c 	lw	v1,28(v0)
10003aa0:	00000000 	nop
10003aa4:	2463ffff 	addiu	v1,v1,-1
10003aa8:	14600032 	bnez	v1,10003b74 <dispatch_isr+0x224>
10003aac:	ac43001c 	sw	v1,28(v0)
10003ab0:	9443002c 	lhu	v1,44(v0)
10003ab4:	00000000 	nop
10003ab8:	1460ffeb 	bnez	v1,10003a68 <dispatch_isr+0x118>
10003abc:	00000000 	nop
10003ac0:	8ec406ec 	lw	a0,1772(s6)
10003ac4:	0c000dc3 	jal	1000370c <hf_queue_addtail>
10003ac8:	00402821 	move	a1,v0
10003acc:	1040ffeb 	beqz	v0,10003a7c <dispatch_isr+0x12c>
10003ad0:	24040009 	li	a0,9
10003ad4:	0c000d36 	jal	100034d8 <panic>
10003ad8:	26100001 	addiu	s0,s0,1
10003adc:	1612ffea 	bne	s0,s2,10003a88 <dispatch_isr+0x138>
10003ae0:	00000000 	nop
10003ae4:	3c101008 	lui	s0,0x1008
10003ae8:	8e02060c 	lw	v0,1548(s0)
10003aec:	00000000 	nop
10003af0:	0040f809 	jalr	v0
10003af4:	2610060c 	addiu	s0,s0,1548
10003af8:	3042ffff 	andi	v0,v0,0xffff
10003afc:	14400007 	bnez	v0,10003b1c <dispatch_isr+0x1cc>
10003b00:	a68206d8 	sh	v0,1752(s4)
10003b04:	8e020004 	lw	v0,4(s0)
10003b08:	00000000 	nop
10003b0c:	0040f809 	jalr	v0
10003b10:	00000000 	nop
10003b14:	3c031008 	lui	v1,0x1008
10003b18:	a46206d8 	sh	v0,1752(v1)
10003b1c:	8e02000c 	lw	v0,12(s0)
10003b20:	8e6306dc 	lw	v1,1756(s3)
10003b24:	24420001 	addiu	v0,v0,1
10003b28:	24050002 	li	a1,2
10003b2c:	24640038 	addiu	a0,v1,56
10003b30:	a0650016 	sb	a1,22(v1)
10003b34:	ae02000c 	sw	v0,12(s0)
10003b38:	0c00009d 	jal	10000274 <_context_restore>
10003b3c:	24050001 	li	a1,1
10003b40:	240400ff 	li	a0,255
10003b44:	8fbf0034 	lw	ra,52(sp)
10003b48:	8fb60030 	lw	s6,48(sp)
10003b4c:	8fb5002c 	lw	s5,44(sp)
10003b50:	8fb40028 	lw	s4,40(sp)
10003b54:	8fb30024 	lw	s3,36(sp)
10003b58:	8fb20020 	lw	s2,32(sp)
10003b5c:	8fb1001c 	lw	s1,28(sp)
10003b60:	8fb00018 	lw	s0,24(sp)
10003b64:	08000d36 	j	100034d8 <panic>
10003b68:	27bd0038 	addiu	sp,sp,56
10003b6c:	08000e82 	j	10003a08 <dispatch_isr+0xb8>
10003b70:	a0430016 	sb	v1,22(v0)
10003b74:	8e2406f8 	lw	a0,1784(s1)
10003b78:	0c000dc3 	jal	1000370c <hf_queue_addtail>
10003b7c:	00402821 	move	a1,v0
10003b80:	1040ffbe 	beqz	v0,10003a7c <dispatch_isr+0x12c>
10003b84:	00000000 	nop
10003b88:	0c000d36 	jal	100034d8 <panic>
10003b8c:	2404000a 	li	a0,10
10003b90:	08000ea0 	j	10003a80 <dispatch_isr+0x130>
10003b94:	26100001 	addiu	s0,s0,1
10003b98:	0c000d36 	jal	100034d8 <panic>
10003b9c:	2404000b 	li	a0,11
10003ba0:	08000ea0 	j	10003a80 <dispatch_isr+0x130>
10003ba4:	26100001 	addiu	s0,s0,1
10003ba8:	0c000d36 	jal	100034d8 <panic>
10003bac:	afa20010 	sw	v0,16(sp)
10003bb0:	8fa20010 	lw	v0,16(sp)
10003bb4:	08000ea7 	j	10003a9c <dispatch_isr+0x14c>
10003bb8:	00000000 	nop

10003bbc <sched_priorityrr>:
10003bbc:	3c021008 	lui	v0,0x1008
10003bc0:	8c4406ec 	lw	a0,1772(v0)
10003bc4:	27bdffd0 	addiu	sp,sp,-48
10003bc8:	afb2001c 	sw	s2,28(sp)
10003bcc:	afbf002c 	sw	ra,44(sp)
10003bd0:	afb50028 	sw	s5,40(sp)
10003bd4:	afb40024 	sw	s4,36(sp)
10003bd8:	afb30020 	sw	s3,32(sp)
10003bdc:	afb10018 	sw	s1,24(sp)
10003be0:	0c000dc0 	jal	10003700 <hf_queue_count>
10003be4:	afb00014 	sw	s0,20(sp)
10003be8:	10400043 	beqz	v0,10003cf8 <sched_priorityrr+0x13c>
10003bec:	00409021 	move	s2,v0
10003bf0:	0c000e36 	jal	100038d8 <run_queue_next>
10003bf4:	00000000 	nop
10003bf8:	1a400043 	blez	s2,10003d08 <sched_priorityrr+0x14c>
10003bfc:	241400ff 	li	s4,255
10003c00:	00008021 	move	s0,zero
10003c04:	00008821 	move	s1,zero
10003c08:	3c131008 	lui	s3,0x1008
10003c0c:	24150003 	li	s5,3
10003c10:	0c000e36 	jal	100038d8 <run_queue_next>
10003c14:	26310001 	addiu	s1,s1,1
10003c18:	8e6206dc 	lw	v0,1756(s3)
10003c1c:	00000000 	nop
10003c20:	90430019 	lbu	v1,25(v0)
10003c24:	00000000 	nop
10003c28:	10600005 	beqz	v1,10003c40 <sched_priorityrr+0x84>
10003c2c:	00000000 	nop
10003c30:	90430016 	lbu	v1,22(v0)
10003c34:	00000000 	nop
10003c38:	1475002c 	bne	v1,s5,10003cec <sched_priorityrr+0x130>
10003c3c:	00000000 	nop
10003c40:	90430018 	lbu	v1,24(v0)
10003c44:	00000000 	nop
10003c48:	0074202b 	sltu	a0,v1,s4
10003c4c:	10800007 	beqz	a0,10003c6c <sched_priorityrr+0xb0>
10003c50:	00000000 	nop
10003c54:	90440016 	lbu	a0,22(v0)
10003c58:	00000000 	nop
10003c5c:	10950003 	beq	a0,s5,10003c6c <sched_priorityrr+0xb0>
10003c60:	00000000 	nop
10003c64:	00408021 	move	s0,v0
10003c68:	0060a021 	move	s4,v1
10003c6c:	1632ffe8 	bne	s1,s2,10003c10 <sched_priorityrr+0x54>
10003c70:	00000000 	nop
10003c74:	00008821 	move	s1,zero
10003c78:	0c000e36 	jal	100038d8 <run_queue_next>
10003c7c:	26310001 	addiu	s1,s1,1
10003c80:	8e6206dc 	lw	v0,1756(s3)
10003c84:	00000000 	nop
10003c88:	12020006 	beq	s0,v0,10003ca4 <sched_priorityrr+0xe8>
10003c8c:	00000000 	nop
10003c90:	90440018 	lbu	a0,24(v0)
10003c94:	92030018 	lbu	v1,24(s0)
10003c98:	00000000 	nop
10003c9c:	00831823 	subu	v1,a0,v1
10003ca0:	a0430018 	sb	v1,24(v0)
10003ca4:	1632fff4 	bne	s1,s2,10003c78 <sched_priorityrr+0xbc>
10003ca8:	00000000 	nop
10003cac:	92020017 	lbu	v0,23(s0)
10003cb0:	ae7006dc 	sw	s0,1756(s3)
10003cb4:	a2020018 	sb	v0,24(s0)
10003cb8:	8e030024 	lw	v1,36(s0)
10003cbc:	8fbf002c 	lw	ra,44(sp)
10003cc0:	24630001 	addiu	v1,v1,1
10003cc4:	96020000 	lhu	v0,0(s0)
10003cc8:	ae030024 	sw	v1,36(s0)
10003ccc:	8fb50028 	lw	s5,40(sp)
10003cd0:	8fb40024 	lw	s4,36(sp)
10003cd4:	8fb30020 	lw	s3,32(sp)
10003cd8:	8fb2001c 	lw	s2,28(sp)
10003cdc:	8fb10018 	lw	s1,24(sp)
10003ce0:	8fb00014 	lw	s0,20(sp)
10003ce4:	03e00008 	jr	ra
10003ce8:	27bd0030 	addiu	sp,sp,48
10003cec:	a0400019 	sb	zero,25(v0)
10003cf0:	08000f2e 	j	10003cb8 <sched_priorityrr+0xfc>
10003cf4:	00408021 	move	s0,v0
10003cf8:	0c000d36 	jal	100034d8 <panic>
10003cfc:	24040005 	li	a0,5
10003d00:	0c000e36 	jal	100038d8 <run_queue_next>
10003d04:	00000000 	nop
10003d08:	00008021 	move	s0,zero
10003d0c:	08000f2b 	j	10003cac <sched_priorityrr+0xf0>
10003d10:	3c131008 	lui	s3,0x1008

10003d14 <sched_rma>:
10003d14:	27bdffc8 	addiu	sp,sp,-56
10003d18:	afb10018 	sw	s1,24(sp)
10003d1c:	3c111008 	lui	s1,0x1008
10003d20:	8e2406f0 	lw	a0,1776(s1)
10003d24:	afb30020 	sw	s3,32(sp)
10003d28:	afbf0034 	sw	ra,52(sp)
10003d2c:	afb70030 	sw	s7,48(sp)
10003d30:	afb6002c 	sw	s6,44(sp)
10003d34:	afb50028 	sw	s5,40(sp)
10003d38:	afb40024 	sw	s4,36(sp)
10003d3c:	afb2001c 	sw	s2,28(sp)
10003d40:	0c000dc0 	jal	10003700 <hf_queue_count>
10003d44:	afb00014 	sw	s0,20(sp)
10003d48:	10400084 	beqz	v0,10003f5c <sched_rma+0x248>
10003d4c:	00409821 	move	s3,v0
10003d50:	2456ffff 	addiu	s6,v0,-1
10003d54:	00009021 	move	s2,zero
10003d58:	0256102a 	slt	v0,s2,s6
10003d5c:	10400024 	beqz	v0,10003df0 <sched_rma+0xdc>
10003d60:	0220a821 	move	s5,s1
10003d64:	26540001 	addiu	s4,s2,1
10003d68:	0293102a 	slt	v0,s4,s3
10003d6c:	1040001c 	beqz	v0,10003de0 <sched_rma+0xcc>
10003d70:	00000000 	nop
10003d74:	08000f62 	j	10003d88 <sched_rma+0x74>
10003d78:	02808021 	move	s0,s4
10003d7c:	26100001 	addiu	s0,s0,1
10003d80:	12130017 	beq	s0,s3,10003de0 <sched_rma+0xcc>
10003d84:	00000000 	nop
10003d88:	8e2406f0 	lw	a0,1776(s1)
10003d8c:	0c000df3 	jal	100037cc <hf_queue_get>
10003d90:	02402821 	move	a1,s2
10003d94:	8e2406f0 	lw	a0,1776(s1)
10003d98:	02002821 	move	a1,s0
10003d9c:	0c000df3 	jal	100037cc <hf_queue_get>
10003da0:	0040b821 	move	s7,v0
10003da4:	9442002c 	lhu	v0,44(v0)
10003da8:	96e3002c 	lhu	v1,44(s7)
10003dac:	00000000 	nop
10003db0:	0043102b 	sltu	v0,v0,v1
10003db4:	1040fff1 	beqz	v0,10003d7c <sched_rma+0x68>
10003db8:	02003021 	move	a2,s0
10003dbc:	8ea406f0 	lw	a0,1776(s5)
10003dc0:	0c000e0d 	jal	10003834 <hf_queue_swap>
10003dc4:	02402821 	move	a1,s2
10003dc8:	1040ffec 	beqz	v0,10003d7c <sched_rma+0x68>
10003dcc:	2404000c 	li	a0,12
10003dd0:	0c000d36 	jal	100034d8 <panic>
10003dd4:	26100001 	addiu	s0,s0,1
10003dd8:	1613ffeb 	bne	s0,s3,10003d88 <sched_rma+0x74>
10003ddc:	00000000 	nop
10003de0:	02809021 	move	s2,s4
10003de4:	0296102a 	slt	v0,s4,s6
10003de8:	1440ffdf 	bnez	v0,10003d68 <sched_rma+0x54>
10003dec:	26540001 	addiu	s4,s2,1
10003df0:	1a600039 	blez	s3,10003ed8 <sched_rma+0x1c4>
10003df4:	3c121008 	lui	s2,0x1008
10003df8:	0000a821 	move	s5,zero
10003dfc:	00008021 	move	s0,zero
10003e00:	0240b021 	move	s6,s2
10003e04:	08000fa6 	j	10003e98 <sched_rma+0x184>
10003e08:	24140003 	li	s4,3
10003e0c:	8e4206dc 	lw	v0,1756(s2)
10003e10:	00000000 	nop
10003e14:	90430016 	lbu	v1,22(v0)
10003e18:	00000000 	nop
10003e1c:	10740009 	beq	v1,s4,10003e44 <sched_rma+0x130>
10003e20:	00000000 	nop
10003e24:	94430032 	lhu	v1,50(v0)
10003e28:	00000000 	nop
10003e2c:	10600005 	beqz	v1,10003e44 <sched_rma+0x130>
10003e30:	00000000 	nop
10003e34:	16a00003 	bnez	s5,10003e44 <sched_rma+0x130>
10003e38:	2463ffff 	addiu	v1,v1,-1
10003e3c:	94550000 	lhu	s5,0(v0)
10003e40:	a4430032 	sh	v1,50(v0)
10003e44:	94430034 	lhu	v1,52(v0)
10003e48:	00000000 	nop
10003e4c:	2463ffff 	addiu	v1,v1,-1
10003e50:	3063ffff 	andi	v1,v1,0xffff
10003e54:	1460000d 	bnez	v1,10003e8c <sched_rma+0x178>
10003e58:	a4430034 	sh	v1,52(v0)
10003e5c:	9444002c 	lhu	a0,44(v0)
10003e60:	94430032 	lhu	v1,50(v0)
10003e64:	00000000 	nop
10003e68:	10600005 	beqz	v1,10003e80 <sched_rma+0x16c>
10003e6c:	a4440034 	sh	a0,52(v0)
10003e70:	8c430028 	lw	v1,40(v0)
10003e74:	00000000 	nop
10003e78:	24630001 	addiu	v1,v1,1
10003e7c:	ac430028 	sw	v1,40(v0)
10003e80:	9443002e 	lhu	v1,46(v0)
10003e84:	00000000 	nop
10003e88:	a4430032 	sh	v1,50(v0)
10003e8c:	26100001 	addiu	s0,s0,1
10003e90:	1213000f 	beq	s0,s3,10003ed0 <sched_rma+0x1bc>
10003e94:	00000000 	nop
10003e98:	8e2406f0 	lw	a0,1776(s1)
10003e9c:	0c000ddb 	jal	1000376c <hf_queue_remhead>
10003ea0:	00000000 	nop
10003ea4:	10400028 	beqz	v0,10003f48 <sched_rma+0x234>
10003ea8:	ae4206dc 	sw	v0,1756(s2)
10003eac:	8e2406f0 	lw	a0,1776(s1)
10003eb0:	0c000dc3 	jal	1000370c <hf_queue_addtail>
10003eb4:	00402821 	move	a1,v0
10003eb8:	1040ffd4 	beqz	v0,10003e0c <sched_rma+0xf8>
10003ebc:	00000000 	nop
10003ec0:	0c000d36 	jal	100034d8 <panic>
10003ec4:	2404000b 	li	a0,11
10003ec8:	08000f83 	j	10003e0c <sched_rma+0xf8>
10003ecc:	00000000 	nop
10003ed0:	16a00010 	bnez	s5,10003f14 <sched_rma+0x200>
10003ed4:	00151100 	sll	v0,s5,0x4
10003ed8:	3c021000 	lui	v0,0x1000
10003edc:	2442531c 	addiu	v0,v0,21276
10003ee0:	ae4206dc 	sw	v0,1756(s2)
10003ee4:	00001021 	move	v0,zero
10003ee8:	8fbf0034 	lw	ra,52(sp)
10003eec:	8fb70030 	lw	s7,48(sp)
10003ef0:	8fb6002c 	lw	s6,44(sp)
10003ef4:	8fb50028 	lw	s5,40(sp)
10003ef8:	8fb40024 	lw	s4,36(sp)
10003efc:	8fb30020 	lw	s3,32(sp)
10003f00:	8fb2001c 	lw	s2,28(sp)
10003f04:	8fb10018 	lw	s1,24(sp)
10003f08:	8fb00014 	lw	s0,20(sp)
10003f0c:	03e00008 	jr	ra
10003f10:	27bd0038 	addiu	sp,sp,56
10003f14:	00151880 	sll	v1,s5,0x2
10003f18:	00621821 	addu	v1,v1,v0
10003f1c:	00751823 	subu	v1,v1,s5
10003f20:	3c021000 	lui	v0,0x1000
10003f24:	000318c0 	sll	v1,v1,0x3
10003f28:	2442531c 	addiu	v0,v0,21276
10003f2c:	00431021 	addu	v0,v0,v1
10003f30:	8c430020 	lw	v1,32(v0)
10003f34:	ae4206dc 	sw	v0,1756(s2)
10003f38:	24630001 	addiu	v1,v1,1
10003f3c:	ac430020 	sw	v1,32(v0)
10003f40:	08000fba 	j	10003ee8 <sched_rma+0x1d4>
10003f44:	02a01021 	move	v0,s5
10003f48:	0c000d36 	jal	100034d8 <panic>
10003f4c:	24040006 	li	a0,6
10003f50:	8ec206dc 	lw	v0,1756(s6)
10003f54:	08000fab 	j	10003eac <sched_rma+0x198>
10003f58:	00000000 	nop
10003f5c:	08000fba 	j	10003ee8 <sched_rma+0x1d4>
10003f60:	00001021 	move	v0,zero

10003f64 <hf_selfid>:
10003f64:	3c021008 	lui	v0,0x1008
10003f68:	8c4206dc 	lw	v0,1756(v0)
10003f6c:	00000000 	nop
10003f70:	94420000 	lhu	v0,0(v0)
10003f74:	03e00008 	jr	ra
10003f78:	00000000 	nop

10003f7c <hf_spawn>:
10003f7c:	27bdffa0 	addiu	sp,sp,-96
10003f80:	afb40048 	sw	s4,72(sp)
10003f84:	afb20040 	sw	s2,64(sp)
10003f88:	30b4ffff 	andi	s4,a1,0xffff
10003f8c:	30d2ffff 	andi	s2,a2,0xffff
10003f90:	0292102b 	sltu	v0,s4,s2
10003f94:	afb60050 	sw	s6,80(sp)
10003f98:	afb5004c 	sw	s5,76(sp)
10003f9c:	afbf005c 	sw	ra,92(sp)
10003fa0:	afbe0058 	sw	s8,88(sp)
10003fa4:	afb70054 	sw	s7,84(sp)
10003fa8:	afb30044 	sw	s3,68(sp)
10003fac:	afb1003c 	sw	s1,60(sp)
10003fb0:	afb00038 	sw	s0,56(sp)
10003fb4:	0080a821 	move	s5,a0
10003fb8:	30f6ffff 	andi	s6,a3,0xffff
10003fbc:	afa00028 	sw	zero,40(sp)
10003fc0:	14400096 	bnez	v0,1000421c <hf_spawn+0x2a0>
10003fc4:	2402ff9b 	li	v0,-101
10003fc8:	02d2102b 	sltu	v0,s6,s2
10003fcc:	14400093 	bnez	v0,1000421c <hf_spawn+0x2a0>
10003fd0:	2402ff9b 	li	v0,-101
10003fd4:	0c00007b 	jal	100001ec <_interrupt_set>
10003fd8:	00002021 	move	a0,zero
10003fdc:	afa2002c 	sw	v0,44(sp)
10003fe0:	8fa20028 	lw	v0,40(sp)
10003fe4:	3c101000 	lui	s0,0x1000
10003fe8:	00022080 	sll	a0,v0,0x2
10003fec:	00021900 	sll	v1,v0,0x4
10003ff0:	00831821 	addu	v1,a0,v1
10003ff4:	00621023 	subu	v0,v1,v0
10003ff8:	000210c0 	sll	v0,v0,0x3
10003ffc:	2610531c 	addiu	s0,s0,21276
10004000:	02021021 	addu	v0,s0,v0
10004004:	8c420088 	lw	v0,136(v0)
10004008:	00000000 	nop
1000400c:	14400013 	bnez	v0,1000405c <hf_spawn+0xe0>
10004010:	00000000 	nop
10004014:	0800101c 	j	10004070 <hf_spawn+0xf4>
10004018:	00000000 	nop
1000401c:	8fa20028 	lw	v0,40(sp)
10004020:	00000000 	nop
10004024:	24420001 	addiu	v0,v0,1
10004028:	afa20028 	sw	v0,40(sp)
1000402c:	8fa20028 	lw	v0,40(sp)
10004030:	00000000 	nop
10004034:	00022080 	sll	a0,v0,0x2
10004038:	00021900 	sll	v1,v0,0x4
1000403c:	00831821 	addu	v1,a0,v1
10004040:	00621023 	subu	v0,v1,v0
10004044:	000210c0 	sll	v0,v0,0x3
10004048:	02021021 	addu	v0,s0,v0
1000404c:	8c420088 	lw	v0,136(v0)
10004050:	00000000 	nop
10004054:	10400006 	beqz	v0,10004070 <hf_spawn+0xf4>
10004058:	00000000 	nop
1000405c:	8fa20028 	lw	v0,40(sp)
10004060:	00000000 	nop
10004064:	2c42001e 	sltiu	v0,v0,30
10004068:	1440ffec 	bnez	v0,1000401c <hf_spawn+0xa0>
1000406c:	00000000 	nop
10004070:	8fa30028 	lw	v1,40(sp)
10004074:	2402001e 	li	v0,30
10004078:	1062008d 	beq	v1,v0,100042b0 <hf_spawn+0x334>
1000407c:	3c041000 	lui	a0,0x1000
10004080:	8fa20028 	lw	v0,40(sp)
10004084:	3c171008 	lui	s7,0x1008
10004088:	00022080 	sll	a0,v0,0x2
1000408c:	00021900 	sll	v1,v0,0x4
10004090:	00831821 	addu	v1,a0,v1
10004094:	00621023 	subu	v0,v1,v0
10004098:	96e706e4 	lhu	a3,1764(s7)
1000409c:	8fa30028 	lw	v1,40(sp)
100040a0:	000210c0 	sll	v0,v0,0x3
100040a4:	02021021 	addu	v0,s0,v0
100040a8:	8fa50070 	lw	a1,112(sp)
100040ac:	3c111008 	lui	s1,0x1008
100040b0:	24e70001 	addiu	a3,a3,1
100040b4:	24060014 	li	a2,20
100040b8:	a4430000 	sh	v1,0(v0)
100040bc:	24440002 	addiu	a0,v0,2
100040c0:	a6e706e4 	sh	a3,1764(s7)
100040c4:	0c0006cb 	jal	10001b2c <strncpy>
100040c8:	ae2206dc 	sw	v0,1756(s1)
100040cc:	8fb30074 	lw	s3,116(sp)
100040d0:	8e3e06dc 	lw	s8,1756(s1)
100040d4:	26730003 	addiu	s3,s3,3
100040d8:	00139882 	srl	s3,s3,0x2
100040dc:	00139880 	sll	s3,s3,0x2
100040e0:	24020064 	li	v0,100
100040e4:	02602021 	move	a0,s3
100040e8:	a3c00016 	sb	zero,22(s8)
100040ec:	a3c20017 	sb	v0,23(s8)
100040f0:	a3c20018 	sb	v0,24(s8)
100040f4:	afc0001c 	sw	zero,28(s8)
100040f8:	a7d4002c 	sh	s4,44(s8)
100040fc:	a7d2002e 	sh	s2,46(s8)
10004100:	a7d60030 	sh	s6,48(s8)
10004104:	a7d20032 	sh	s2,50(s8)
10004108:	a7d60034 	sh	s6,52(s8)
1000410c:	afc00020 	sw	zero,32(s8)
10004110:	afc00024 	sw	zero,36(s8)
10004114:	afc00028 	sw	zero,40(s8)
10004118:	afd50088 	sw	s5,136(s8)
1000411c:	0c00084a 	jal	10002128 <hf_malloc>
10004120:	afd30090 	sw	s3,144(s8)
10004124:	8e2306dc 	lw	v1,1756(s1)
10004128:	afc2008c 	sw	v0,140(s8)
1000412c:	8c65008c 	lw	a1,140(v1)
10004130:	94640000 	lhu	a0,0(v1)
10004134:	24a5fffc 	addiu	a1,a1,-4
10004138:	0c000489 	jal	10001224 <_set_task_sp>
1000413c:	00b32821 	addu	a1,a1,s3
10004140:	8e2206dc 	lw	v0,1756(s1)
10004144:	00000000 	nop
10004148:	94440000 	lhu	a0,0(v0)
1000414c:	8c450088 	lw	a1,136(v0)
10004150:	0c0004a0 	jal	10001280 <_set_task_tp>
10004154:	00000000 	nop
10004158:	8e3e06dc 	lw	s8,1756(s1)
1000415c:	00000000 	nop
10004160:	8fc2008c 	lw	v0,140(s8)
10004164:	00000000 	nop
10004168:	10400042 	beqz	v0,10004274 <hf_spawn+0x2f8>
1000416c:	3c03b00b 	lui	v1,0xb00b
10004170:	97c60000 	lhu	a2,0(s8)
10004174:	97c7002c 	lhu	a3,44(s8)
10004178:	3463b00b 	ori	v1,v1,0xb00b
1000417c:	00c02021 	move	a0,a2
10004180:	ac430000 	sw	v1,0(v0)
10004184:	97d6002e 	lhu	s6,46(s8)
10004188:	97d50030 	lhu	s5,48(s8)
1000418c:	8fd20088 	lw	s2,136(s8)
10004190:	afa60034 	sw	a2,52(sp)
10004194:	0c000494 	jal	10001250 <_get_task_sp>
10004198:	afa70030 	sw	a3,48(sp)
1000419c:	3c041000 	lui	a0,0x1000
100041a0:	8fa60034 	lw	a2,52(sp)
100041a4:	8fa70030 	lw	a3,48(sp)
100041a8:	24844ca4 	addiu	a0,a0,19620
100041ac:	27c50002 	addiu	a1,s8,2
100041b0:	afb60010 	sw	s6,16(sp)
100041b4:	afb50014 	sw	s5,20(sp)
100041b8:	afb20018 	sw	s2,24(sp)
100041bc:	afa2001c 	sw	v0,28(sp)
100041c0:	0c00056f 	jal	100015bc <kprintf>
100041c4:	afb30020 	sw	s3,32(sp)
100041c8:	16800020 	bnez	s4,1000424c <hf_spawn+0x2d0>
100041cc:	3c021008 	lui	v0,0x1008
100041d0:	3c021008 	lui	v0,0x1008
100041d4:	8c4406ec 	lw	a0,1772(v0)
100041d8:	8e2506dc 	lw	a1,1756(s1)
100041dc:	0c000dc3 	jal	1000370c <hf_queue_addtail>
100041e0:	00000000 	nop
100041e4:	1440002e 	bnez	v0,100042a0 <hf_spawn+0x324>
100041e8:	00000000 	nop
100041ec:	3c021008 	lui	v0,0x1008
100041f0:	944206d8 	lhu	v0,1752(v0)
100041f4:	8fa4002c 	lw	a0,44(sp)
100041f8:	00022880 	sll	a1,v0,0x2
100041fc:	00021900 	sll	v1,v0,0x4
10004200:	00a31821 	addu	v1,a1,v1
10004204:	00621023 	subu	v0,v1,v0
10004208:	000210c0 	sll	v0,v0,0x3
1000420c:	02028021 	addu	s0,s0,v0
10004210:	0c00007b 	jal	100001ec <_interrupt_set>
10004214:	ae3006dc 	sw	s0,1756(s1)
10004218:	8fa20028 	lw	v0,40(sp)
1000421c:	8fbf005c 	lw	ra,92(sp)
10004220:	8fbe0058 	lw	s8,88(sp)
10004224:	8fb70054 	lw	s7,84(sp)
10004228:	8fb60050 	lw	s6,80(sp)
1000422c:	8fb5004c 	lw	s5,76(sp)
10004230:	8fb40048 	lw	s4,72(sp)
10004234:	8fb30044 	lw	s3,68(sp)
10004238:	8fb20040 	lw	s2,64(sp)
1000423c:	8fb1003c 	lw	s1,60(sp)
10004240:	8fb00038 	lw	s0,56(sp)
10004244:	03e00008 	jr	ra
10004248:	27bd0060 	addiu	sp,sp,96
1000424c:	8c4406f0 	lw	a0,1776(v0)
10004250:	8e2506dc 	lw	a1,1756(s1)
10004254:	0c000dc3 	jal	1000370c <hf_queue_addtail>
10004258:	00000000 	nop
1000425c:	1040ffe3 	beqz	v0,100041ec <hf_spawn+0x270>
10004260:	00000000 	nop
10004264:	0c000d36 	jal	100034d8 <panic>
10004268:	2404000b 	li	a0,11
1000426c:	0800107c 	j	100041f0 <hf_spawn+0x274>
10004270:	3c021008 	lui	v0,0x1008
10004274:	96e206e4 	lhu	v0,1764(s7)
10004278:	3c041000 	lui	a0,0x1000
1000427c:	2442ffff 	addiu	v0,v0,-1
10004280:	afc00088 	sw	zero,136(s8)
10004284:	24844cec 	addiu	a0,a0,19692
10004288:	0c00056f 	jal	100015bc <kprintf>
1000428c:	a6e206e4 	sh	v0,1764(s7)
10004290:	2402ff98 	li	v0,-104
10004294:	afa20028 	sw	v0,40(sp)
10004298:	0800107c 	j	100041f0 <hf_spawn+0x274>
1000429c:	3c021008 	lui	v0,0x1008
100042a0:	0c000d36 	jal	100034d8 <panic>
100042a4:	24040009 	li	a0,9
100042a8:	0800107c 	j	100041f0 <hf_spawn+0x274>
100042ac:	3c021008 	lui	v0,0x1008
100042b0:	24844c7c 	addiu	a0,a0,19580
100042b4:	0c00056f 	jal	100015bc <kprintf>
100042b8:	2405001e 	li	a1,30
100042bc:	8fa4002c 	lw	a0,44(sp)
100042c0:	0c00007b 	jal	100001ec <_interrupt_set>
100042c4:	00000000 	nop
100042c8:	08001087 	j	1000421c <hf_spawn+0x2a0>
100042cc:	2402ff99 	li	v0,-103
